;
; Definition file of libwebrtc_audio_processing-0.dll
; Automatic generated by gendef
; written by Kai Tietz 2008
;
LIBRARY "libwebrtc_audio_processing-0.dll"
EXPORTS
WebRtcAec_BufferFarend
WebRtcAec_BufferFarendPartition
WebRtcAec_ComfortNoise DATA
WebRtcAec_Create
WebRtcAec_CreateAec
WebRtcAec_CreateResampler
WebRtcAec_FilterAdaptation DATA
WebRtcAec_FilterFar DATA
WebRtcAec_Free ; Check!!! forwards to free in msvcrt.dll (ordinal 1004)
WebRtcAec_FreeAec ; Check!!! forwards to free in msvcrt.dll (ordinal 1004)
WebRtcAec_FreeResampler ; Check!!! forwards to free in msvcrt.dll (ordinal 1004)
WebRtcAec_GetDelayMetrics
WebRtcAec_GetDelayMetricsCore
WebRtcAec_GetEchoStats
WebRtcAec_GetMetrics
WebRtcAec_GetSkew
WebRtcAec_Init
WebRtcAec_InitAec
WebRtcAec_InitAec_SSE2
WebRtcAec_InitResampler
WebRtcAec_MoveFarReadPtr
WebRtcAec_OverdriveAndSuppress DATA
WebRtcAec_Process
WebRtcAec_ProcessFrames
WebRtcAec_ResampleLinear ; Check!!! forwards to memmove in msvcrt.dll (ordinal 1070)
WebRtcAec_ScaleErrorSignal DATA
WebRtcAec_SetConfigCore
WebRtcAec_SetSystemDelay
WebRtcAec_SubbandCoherence DATA
WebRtcAec_aec_core
WebRtcAec_delay_agnostic_enabled
WebRtcAec_echo_state
WebRtcAec_enable_delay_agnostic
WebRtcAec_enable_extended_filter
WebRtcAec_extended_filter_enabled
WebRtcAec_get_echo_status
WebRtcAec_get_error_code
WebRtcAec_kExtendedSmoothingCoefficients DATA
WebRtcAec_kMinFarendPSD DATA
WebRtcAec_kNormalSmoothingCoefficients DATA
WebRtcAec_overDriveCurve DATA
WebRtcAec_set_config
WebRtcAec_sqrtHanning DATA
WebRtcAec_system_delay
WebRtcAec_weightCurve DATA
WebRtcAecm_AlignedFarend
WebRtcAecm_AsymFilt
WebRtcAecm_BufferFarFrame
WebRtcAecm_BufferFarend
WebRtcAecm_CalcEnergies
WebRtcAecm_CalcLinearEnergies DATA
WebRtcAecm_CalcStepSize
WebRtcAecm_CalcSuppressionGain
WebRtcAecm_Control
WebRtcAecm_Create
WebRtcAecm_CreateCore
WebRtcAecm_FetchFarFrame
WebRtcAecm_Free ; Check!!! forwards to free in msvcrt.dll (ordinal 1004)
WebRtcAecm_FreeCore ; Check!!! forwards to free in msvcrt.dll (ordinal 1004)
WebRtcAecm_GetEchoPath
WebRtcAecm_Init
WebRtcAecm_InitCore
WebRtcAecm_InitEchoPath
WebRtcAecm_InitEchoPathCore
WebRtcAecm_Process
WebRtcAecm_ProcessBlock
WebRtcAecm_ProcessFrame
WebRtcAecm_ResetAdaptiveChannel DATA
WebRtcAecm_StoreAdaptiveChannel DATA
WebRtcAecm_UpdateChannel
WebRtcAecm_UpdateFarHistory
WebRtcAecm_echo_path_size_bytes
WebRtcAecm_get_config
WebRtcAecm_get_error_code
WebRtcAecm_kCosTable DATA
WebRtcAecm_kSinTable DATA
WebRtcAecm_set_config
WebRtcAgc_AddFarend
WebRtcAgc_AddFarendToDigital
WebRtcAgc_AddMic
WebRtcAgc_CalculateGainTable
WebRtcAgc_Create
WebRtcAgc_ExpCurve
WebRtcAgc_Free ; Check!!! forwards to free in msvcrt.dll (ordinal 1004)
WebRtcAgc_Init
WebRtcAgc_InitDigital
WebRtcAgc_InitVad
WebRtcAgc_Process
WebRtcAgc_ProcessAnalog
WebRtcAgc_ProcessDigital
WebRtcAgc_ProcessVad
WebRtcAgc_SaturationCtrl
WebRtcAgc_SpeakerInactiveCtrl
WebRtcAgc_UpdateAgcThresholds
WebRtcAgc_VirtualMic
WebRtcAgc_ZeroCtrl
WebRtcAgc_get_config
WebRtcAgc_set_config
WebRtcIsac_AllPoleFilter
WebRtcIsac_AllZeroFilter
WebRtcIsac_AllpassFilterForDec
WebRtcIsac_AutoCorr
WebRtcIsac_BwExpand
WebRtcIsac_DecimateAllpass
WebRtcIsac_FilterAndCombineFloat
WebRtcIsac_GetLpcCoefLb
WebRtcIsac_GetLpcCoefUb
WebRtcIsac_GetLpcGain
WebRtcIsac_GetVars
WebRtcIsac_GetVarsUB
WebRtcIsac_Highpass
WebRtcIsac_InitMasking
WebRtcIsac_InitPitchAnalysis
WebRtcIsac_InitPitchFilter
WebRtcIsac_InitPostFilterbank
WebRtcIsac_InitPreFilterbank
WebRtcIsac_InitWeightingFilter
WebRtcIsac_InitializePitch
WebRtcIsac_LevDurb
WebRtcIsac_PitchAnalysis
WebRtcIsac_PitchfilterPost
WebRtcIsac_PitchfilterPre
WebRtcIsac_PitchfilterPre_gains
WebRtcIsac_PitchfilterPre_la
WebRtcIsac_SplitAndFilterFloat
WebRtcIsac_WeightingFilter
WebRtcIsac_ZeroPoleFilter
WebRtcIsac_kCompositeApFactorsFloat DATA
WebRtcIsac_kLowerApFactorsFloat DATA
WebRtcIsac_kTransform1Float DATA
WebRtcIsac_kTransform2Float DATA
WebRtcIsac_kUpperApFactorsFloat DATA
WebRtcNs_Analyze
WebRtcNs_AnalyzeCore
WebRtcNs_Create
WebRtcNs_Free ; Check!!! forwards to free in msvcrt.dll (ordinal 1004)
WebRtcNs_Init
WebRtcNs_InitCore
WebRtcNs_Process
WebRtcNs_ProcessCore
WebRtcNs_prior_speech_probability
WebRtcNs_set_policy
WebRtcNs_set_policy_core
WebRtcSpl_32khzTo22khzIntToInt
WebRtcSpl_AllPassQMF
WebRtcSpl_AnalysisQMF
WebRtcSpl_ComplexBitReverse
WebRtcSpl_ComplexFFT
WebRtcSpl_ComplexIFFT
WebRtcSpl_CopyFromEndW16 ; Check!!! forwards to memcpy in msvcrt.dll (ordinal 1068)
WebRtcSpl_CreateRealFFT
WebRtcSpl_CrossCorrelation DATA
WebRtcSpl_CrossCorrelationC
WebRtcSpl_DivResultInQ31
WebRtcSpl_DivU32U16
WebRtcSpl_DivW32HiLow
WebRtcSpl_DivW32W16
WebRtcSpl_DivW32W16ResW16
WebRtcSpl_DotProductWithScale
WebRtcSpl_DownBy2IntToShort
WebRtcSpl_DownBy2ShortToInt
WebRtcSpl_DownsampleBy2
WebRtcSpl_DownsampleFast DATA
WebRtcSpl_DownsampleFastC
WebRtcSpl_Energy
WebRtcSpl_FreeRealFFT ; Check!!! forwards to free in msvcrt.dll (ordinal 1004)
WebRtcSpl_GetScalingSquare
WebRtcSpl_Init
WebRtcSpl_LPBy2IntToInt
WebRtcSpl_LPBy2ShortToInt
WebRtcSpl_MaxAbsIndexW16
WebRtcSpl_MaxAbsValueW16 DATA
WebRtcSpl_MaxAbsValueW16C
WebRtcSpl_MaxAbsValueW32 DATA
WebRtcSpl_MaxAbsValueW32C
WebRtcSpl_MaxIndexW16
WebRtcSpl_MaxIndexW32
WebRtcSpl_MaxValueW16 DATA
WebRtcSpl_MaxValueW16C
WebRtcSpl_MaxValueW32 DATA
WebRtcSpl_MaxValueW32C
WebRtcSpl_MemCpyReversedOrder
WebRtcSpl_MemSetW16
WebRtcSpl_MemSetW32
WebRtcSpl_MinIndexW16
WebRtcSpl_MinIndexW32
WebRtcSpl_MinValueW16 DATA
WebRtcSpl_MinValueW16C
WebRtcSpl_MinValueW32 DATA
WebRtcSpl_MinValueW32C
WebRtcSpl_RandN
WebRtcSpl_RandU
WebRtcSpl_RandUArray
WebRtcSpl_RealForwardFFT
WebRtcSpl_RealInverseFFT
WebRtcSpl_Resample16khzTo22khz
WebRtcSpl_Resample16khzTo48khz
WebRtcSpl_Resample22khzTo16khz
WebRtcSpl_Resample22khzTo8khz
WebRtcSpl_Resample32khzTo24khz
WebRtcSpl_Resample44khzTo32khz
WebRtcSpl_Resample48khzTo16khz
WebRtcSpl_Resample48khzTo32khz
WebRtcSpl_Resample48khzTo8khz
WebRtcSpl_Resample8khzTo22khz
WebRtcSpl_Resample8khzTo48khz
WebRtcSpl_ResetResample16khzTo22khz
WebRtcSpl_ResetResample16khzTo48khz
WebRtcSpl_ResetResample22khzTo16khz
WebRtcSpl_ResetResample22khzTo8khz
WebRtcSpl_ResetResample48khzTo16khz
WebRtcSpl_ResetResample48khzTo8khz
WebRtcSpl_ResetResample8khzTo22khz
WebRtcSpl_ResetResample8khzTo48khz
WebRtcSpl_ScaleAndAddVectors
WebRtcSpl_ScaleAndAddVectorsWithRound DATA
WebRtcSpl_ScaleAndAddVectorsWithRoundC
WebRtcSpl_ScaleVector
WebRtcSpl_ScaleVectorWithSat
WebRtcSpl_Sqrt
WebRtcSpl_SqrtFloor
WebRtcSpl_SqrtLocal
WebRtcSpl_SynthesisQMF
WebRtcSpl_UpBy2IntToInt
WebRtcSpl_UpBy2IntToShort
WebRtcSpl_UpBy2ShortToInt
WebRtcSpl_UpsampleBy2
WebRtcSpl_VectorBitShiftW16
WebRtcSpl_VectorBitShiftW32
WebRtcSpl_VectorBitShiftW32ToW16
WebRtcSpl_ZerosArrayW16
WebRtcSpl_ZerosArrayW32
WebRtcVad_CalcVad16khz
WebRtcVad_CalcVad32khz
WebRtcVad_CalcVad48khz
WebRtcVad_CalcVad8khz
WebRtcVad_CalculateFeatures
WebRtcVad_Create
WebRtcVad_Downsampling
WebRtcVad_FindMinimum
WebRtcVad_Free ; Check!!! forwards to free in msvcrt.dll (ordinal 1004)
WebRtcVad_GaussianProbability
WebRtcVad_Init
WebRtcVad_InitCore
WebRtcVad_Process
WebRtcVad_ValidRateAndFrameLength
WebRtcVad_set_mode
WebRtcVad_set_mode_core
WebRtc_AddBinaryFarSpectrum
WebRtc_AddFarSpectrumFix
WebRtc_AddFarSpectrumFloat
WebRtc_AllocateFarendBufferMemory
WebRtc_AllocateHistoryBufferMemory
WebRtc_CreateBinaryDelayEstimator
WebRtc_CreateBinaryDelayEstimatorFarend
WebRtc_CreateBuffer
WebRtc_CreateDelayEstimator
WebRtc_CreateDelayEstimatorFarend
WebRtc_DelayEstimatorProcessFix
WebRtc_DelayEstimatorProcessFloat
WebRtc_FreeBinaryDelayEstimator ; Check!!! forwards to free in msvcrt.dll (ordinal 1004)
WebRtc_FreeBinaryDelayEstimatorFarend ; Check!!! forwards to free in msvcrt.dll (ordinal 1004)
WebRtc_FreeBuffer ; Check!!! forwards to free in msvcrt.dll (ordinal 1004)
WebRtc_FreeDelayEstimator ; Check!!! forwards to free in msvcrt.dll (ordinal 1004)
WebRtc_FreeDelayEstimatorFarend ; Check!!! forwards to free in msvcrt.dll (ordinal 1004)
WebRtc_GetCPUInfo DATA
WebRtc_GetCPUInfoNoASM DATA
WebRtc_InitBinaryDelayEstimator
WebRtc_InitBinaryDelayEstimatorFarend
WebRtc_InitBuffer
WebRtc_InitDelayEstimator
WebRtc_InitDelayEstimatorFarend
WebRtc_MeanEstimatorFix
WebRtc_MoveReadPtr
WebRtc_ProcessBinarySpectrum
WebRtc_ReadBuffer
WebRtc_SoftResetBinaryDelayEstimator
WebRtc_SoftResetBinaryDelayEstimatorFarend
WebRtc_SoftResetDelayEstimator
WebRtc_SoftResetDelayEstimatorFarend
WebRtc_WriteBuffer
WebRtc_available_read
WebRtc_available_write
WebRtc_binary_last_delay
WebRtc_binary_last_delay_quality
WebRtc_enable_robust_validation
WebRtc_get_allowed_offset
WebRtc_history_size
WebRtc_is_robust_validation_enabled
WebRtc_last_delay
WebRtc_last_delay_quality
WebRtc_lookahead
WebRtc_rdft
WebRtc_set_allowed_offset
WebRtc_set_history_size
WebRtc_set_lookahead
_Z11Db2Loudnessd
_Z11Loudness2Dbd
_Z13Dbfs2Loudnessd
_Z15GetCPUInfoNoASM10CPUFeature
_Z15Linear2Loudnessd
_Z27GetSubframesPitchParametersiPdS_iiS_S_S_S_
_ZGVZN6webrtc6Config13default_valueINS_11BeamformingEEERKT_vE3def DATA
_ZGVZN6webrtc6Config13default_valueINS_13DelayAgnosticEEERKT_vE3def DATA
_ZGVZN6webrtc6Config13default_valueINS_14ExperimentalNsEEERKT_vE3def DATA
_ZGVZN6webrtc6Config13default_valueINS_14ExtendedFilterEEERKT_vE3def DATA
_ZGVZN6webrtc6Config13default_valueINS_15ExperimentalAgcEEERKT_vE3def DATA
_ZGVZN6webrtc6Config13default_valueINS_15IntelligibilityEEERKT_vE3def DATA
_ZN3rtc10GlobalLockC1Ev
_ZN3rtc10GlobalLockC2Ev
_ZN3rtc10PrintErrorEPKcz
_ZN3rtc10scoped_ptrIA_NS0_IA_St7complexIfENS_14DefaultDeleterIS3_EEEENS4_IS7_EEED1Ev
_ZN3rtc10scoped_ptrIA_PfNS_14DefaultDeleterIS2_EEED1Ev
_ZN3rtc10scoped_ptrIA_St7complexIfENS_14DefaultDeleterIS3_EEED1Ev
_ZN3rtc10scoped_ptrIA_fN6webrtc18AlignedFreeDeleterEED1Ev
_ZN3rtc10scoped_ptrIA_fNS_14DefaultDeleterIS1_EEED1Ev
_ZN3rtc10scoped_ptrIA_hNS_14DefaultDeleterIS1_EEED1Ev
_ZN3rtc10scoped_ptrIA_sNS_14DefaultDeleterIS1_EEED1Ev
_ZN3rtc10scoped_ptrIN6webrtc13ChannelBufferIfEENS_14DefaultDeleterIS3_EEED1Ev
_ZN3rtc10scoped_ptrIN6webrtc13ChannelBufferIsEENS_14DefaultDeleterIS3_EEED1Ev
_ZN3rtc10scoped_ptrIN6webrtc15IFChannelBufferENS_14DefaultDeleterIS2_EEED1Ev
_ZN3rtc10scoped_ptrIN6webrtc15LappedTransformENS_14DefaultDeleterIS2_EEED1Ev
_ZN3rtc10scoped_ptrIN6webrtc15SplittingFilterENS_14DefaultDeleterIS2_EEED1Ev
_ZN3rtc10scoped_ptrIN6webrtc16AgcManagerDirectENS_14DefaultDeleterIS2_EEED1Ev
_ZN3rtc10scoped_ptrIN6webrtc19TransientSuppressorENS_14DefaultDeleterIS2_EEED1Ev
_ZN3rtc10scoped_ptrIN6webrtc23IntelligibilityEnhancerENS_14DefaultDeleterIS2_EEED1Ev
_ZN3rtc10scoped_ptrIN6webrtc7WPDTreeENS_14DefaultDeleterIS2_EEED1Ev
_ZN3rtc10scoped_ptrIN6webrtc9DebugFileENS_14DefaultDeleterIS2_EEED1Ev
_ZN3rtc10scoped_ptrIN6webrtc9HistogramENS_14DefaultDeleterIS2_EEED1Ev
_ZN3rtc11VPrintErrorEPKcPc
_ZN3rtc12FatalMessage4InitEPKci@8
_ZN3rtc12FatalMessageC1EPKci@8
_ZN3rtc12FatalMessageC1EPKciPSs@12
_ZN3rtc12FatalMessageC2EPKci@8
_ZN3rtc12FatalMessageC2EPKciPSs@12
_ZN3rtc12FatalMessageD1Ev
_ZN3rtc12FatalMessageD2Ev
_ZN3rtc12TryCritScopeC1EPNS_15CriticalSectionE@4
_ZN3rtc12TryCritScopeC2EPNS_15CriticalSectionE@4
_ZN3rtc12TryCritScopeD1Ev
_ZN3rtc12TryCritScopeD2Ev
_ZN3rtc13DumpBacktraceEv
_ZN3rtc13GlobalLockPod4LockEv
_ZN3rtc13GlobalLockPod6UnlockEv
_ZN3rtc15CriticalSection5EnterEv
_ZN3rtc15CriticalSection5LeaveEv
_ZN3rtc15CriticalSection8TryEnterEv
_ZN3rtc15CriticalSectionC1Ev
_ZN3rtc15CriticalSectionC2Ev
_ZN3rtc15CriticalSectionD1Ev
_ZN3rtc15CriticalSectionD2Ev
_ZN3rtc15CurrentThreadIdEv ; Check!!! Couldn't determine function argument count. Function doesn't return. 
_ZN3rtc15GlobalLockScopeC1EPNS_13GlobalLockPodE@4
_ZN3rtc15GlobalLockScopeC2EPNS_13GlobalLockPodE@4
_ZN3rtc15GlobalLockScopeD1Ev
_ZN3rtc15GlobalLockScopeD2Ev
_ZN3rtc16CurrentThreadRefEv ; Check!!! Couldn't determine function argument count. Function doesn't return. 
_ZN3rtc16IsThreadRefEqualERKmS1_
_ZN3rtc17ClosePlatformFileEPv
_ZN3rtc17MakeCheckOpStringISsSsEEPSsRKT_RKT0_PKc
_ZN3rtc17MakeCheckOpStringIiiEEPSsRKT_RKT0_PKc
_ZN3rtc17MakeCheckOpStringIjjEEPSsRKT_RKT0_PKc
_ZN3rtc17MakeCheckOpStringIjmEEPSsRKT_RKT0_PKc
_ZN3rtc17MakeCheckOpStringImjEEPSsRKT_RKT0_PKc
_ZN3rtc17MakeCheckOpStringImmEEPSsRKT_RKT0_PKc
_ZN3rtc20SetCurrentThreadNameEPKc
_ZN3rtc25kInvalidPlatformFileValueE DATA
_ZN3rtc28FdopenPlatformFileForWritingEPv
_ZN3rtc9CritScopeC1EPNS_15CriticalSectionE@4
_ZN3rtc9CritScopeC2EPNS_15CriticalSectionE@4
_ZN3rtc9CritScopeD1Ev
_ZN3rtc9CritScopeD2Ev
_ZN6webrtc10BeamformerIfE8IsInBeamERKNS_14SphericalPointIfEE@4
_ZN6webrtc10BeamformerIfED0Ev
_ZN6webrtc10BeamformerIfED1Ev
_ZN6webrtc10DotProductERKNS_14CartesianPointIfEES3_
_ZN6webrtc10FIRFilterC6FilterEPKfjPf@12
_ZN6webrtc10FIRFilterCC1EPKfj@8
_ZN6webrtc10FIRFilterCC2EPKfj@8
_ZN6webrtc10FIRFilterCD0Ev
_ZN6webrtc10FIRFilterCD1Ev
_ZN6webrtc10FloatToS16EPKfjPs
_ZN6webrtc10LogMessage8LoggableENS_15LoggingSeverityE
_ZN6webrtc10LogMessageC1EPKciNS_15LoggingSeverityE@12
_ZN6webrtc10LogMessageC2EPKciNS_15LoggingSeverityE@12
_ZN6webrtc10LogMessageD1Ev
_ZN6webrtc10LogMessageD2Ev
_ZN6webrtc10S16ToFloatEPKsjPf
_ZN6webrtc11AlignedFreeEPv ; Check!!! forwards to free in msvcrt.dll (ordinal 1004)
_ZN6webrtc11AreParallelERKNS_14CartesianPointIfEES3_
_ZN6webrtc11AudioBuffer10channels_fEv
_ZN6webrtc11AudioBuffer10split_dataEv
_ZN6webrtc11AudioBuffer11split_bandsEi@4
_ZN6webrtc11AudioBuffer12InterleaveToEPNS_10AudioFrameEb@8
_ZN6webrtc11AudioBuffer12set_activityENS_10AudioFrame11VADActivityE@4
_ZN6webrtc11AudioBuffer12split_data_fEv
_ZN6webrtc11AudioBuffer13split_bands_fEi@4
_ZN6webrtc11AudioBuffer14InitForNewDataEv
_ZN6webrtc11AudioBuffer14split_channelsENS_4BandE@4
_ZN6webrtc11AudioBuffer16DeinterleaveFromEPNS_10AudioFrameE@4
_ZN6webrtc11AudioBuffer16set_num_channelsEi@4
_ZN6webrtc11AudioBuffer16split_channels_fENS_4BandE@4
_ZN6webrtc11AudioBuffer19MergeFrequencyBandsEv
_ZN6webrtc11AudioBuffer19mixed_low_pass_dataEv
_ZN6webrtc11AudioBuffer22CopyLowPassToReferenceEv
_ZN6webrtc11AudioBuffer23SplitIntoFrequencyBandsEv
_ZN6webrtc11AudioBuffer4dataEv
_ZN6webrtc11AudioBuffer6CopyToERKNS_12StreamConfigEPKPf@8
_ZN6webrtc11AudioBuffer6data_fEv
_ZN6webrtc11AudioBuffer8CopyFromEPKPKfRKNS_12StreamConfigE@8
_ZN6webrtc11AudioBuffer8channelsEv
_ZN6webrtc11AudioBufferC1Ejijij@20
_ZN6webrtc11AudioBufferC2Ejijij@20
_ZN6webrtc11AudioBufferD0Ev
_ZN6webrtc11AudioBufferD1Ev
_ZN6webrtc11AudioBufferD2Ev
_ZN6webrtc11EvaluateGmmEPKdRKNS_13GmmParametersE
_ZN6webrtc11FileWrapper6CreateEv
_ZN6webrtc11FileWrapper6RewindEv
_ZN6webrtc11FileWrapperD0Ev
_ZN6webrtc11FileWrapperD1Ev
_ZN6webrtc11GainControlD0Ev
_ZN6webrtc11GainControlD1Ev
_ZN6webrtc11RealFourier13ComplexLengthEi
_ZN6webrtc11RealFourier15AllocCplxBufferEi
_ZN6webrtc11RealFourier15AllocRealBufferEi
_ZN6webrtc11RealFourier19kFftBufferAlignmentE DATA
_ZN6webrtc11RealFourier6CreateEi
_ZN6webrtc11RealFourier8FftOrderEj
_ZN6webrtc11RealFourier9FftLengthEi
_ZN6webrtc11RealFourierD0Ev
_ZN6webrtc11RealFourierD1Ev
_ZN6webrtc12CrossProductERKNS_14CartesianPointIfEES3_
_ZN6webrtc12ScopedVectorINS_14AudioConverterEED1Ev
_ZN6webrtc12ScopedVectorINS_15SparseFIRFilterEED1Ev
_ZN6webrtc12ScopedVectorINS_17PushSincResamplerEED1Ev
_ZN6webrtc12TraceWindowsC1Ev
_ZN6webrtc12TraceWindowsC2Ev
_ZN6webrtc12TraceWindowsD0Ev
_ZN6webrtc12TraceWindowsD1Ev
_ZN6webrtc12TraceWindowsD2Ev
_ZN6webrtc12VadAudioProc11ResetBufferEv
_ZN6webrtc12VadAudioProc13PitchAnalysisEPdS1_j@12
_ZN6webrtc12VadAudioProc15ExtractFeaturesEPKsjP13AudioFeatures@12
_ZN6webrtc12VadAudioProc17GetLpcPolynomialsEPdj@8
_ZN6webrtc12VadAudioProc19SubframeCorrelationEPdjj@12
_ZN6webrtc12VadAudioProc22FindFirstSpectralPeaksEPdj@8
_ZN6webrtc12VadAudioProc3RmsEPdj@8
_ZN6webrtc12VadAudioProcC1Ev
_ZN6webrtc12VadAudioProcC2Ev
_ZN6webrtc12VadAudioProcD1Ev
_ZN6webrtc12VadAudioProcD2Ev
_ZN6webrtc13AlignedMallocEjj
_ZN6webrtc13ChannelBufferIfED1Ev
_ZN6webrtc13ChannelBufferIsED1Ev
_ZN6webrtc13ComplexMatrixIfED0Ev
_ZN6webrtc13ComplexMatrixIfED1Ev
_ZN6webrtc13CopyConverter7ConvertEPKPKfjPKPfj@16
_ZN6webrtc13CopyConverterD0Ev
_ZN6webrtc13CopyConverterD1Ev
_ZN6webrtc13FIRFilterSSE26FilterEPKfjPf@12
_ZN6webrtc13FIRFilterSSE2C1EPKfjj@12
_ZN6webrtc13FIRFilterSSE2C2EPKfjj@12
_ZN6webrtc13FIRFilterSSE2D0Ev
_ZN6webrtc13FIRFilterSSE2D1Ev
_ZN6webrtc13FloatS16ToS16EPKfjPs
_ZN6webrtc13GetRightAlignEPKvj
_ZN6webrtc13GetRightAlignEjj
_ZN6webrtc13MovingMoments16CalculateMomentsEPKfjPfS3_@16
_ZN6webrtc13MovingMomentsC1Ej@4
_ZN6webrtc13MovingMomentsC2Ej@4
_ZN6webrtc13MovingMomentsD1Ev
_ZN6webrtc13MovingMomentsD2Ev
_ZN6webrtc13PairDirectionERKNS_14CartesianPointIfEES3_
_ZN6webrtc13PitchBasedVad11UpdatePriorEd@8
_ZN6webrtc13PitchBasedVad18VoicingProbabilityERK13AudioFeaturesPd@8
_ZN6webrtc13PitchBasedVadC1Ev
_ZN6webrtc13PitchBasedVadC2Ev
_ZN6webrtc13PitchBasedVadD1Ev
_ZN6webrtc13PitchBasedVadD2Ev
_ZN6webrtc13RWLockGeneric17AcquireLockSharedEv
_ZN6webrtc13RWLockGeneric17ReleaseLockSharedEv
_ZN6webrtc13RWLockGeneric20AcquireLockExclusiveEv
_ZN6webrtc13RWLockGeneric20ReleaseLockExclusiveEv
_ZN6webrtc13RWLockGenericC1Ev
_ZN6webrtc13RWLockGenericC2Ev
_ZN6webrtc13RWLockGenericD0Ev
_ZN6webrtc13RWLockGenericD1Ev
_ZN6webrtc13RWLockGenericD2Ev
_ZN6webrtc13RWLockWrapper12CreateRWLockEv
_ZN6webrtc13RWLockWrapperD0Ev
_ZN6webrtc13RWLockWrapperD1Ev
_ZN6webrtc13SincResampler10Convolve_CEPKfS2_S2_d
_ZN6webrtc13SincResampler12Convolve_SSEEPKfS2_S2_d
_ZN6webrtc13SincResampler13UpdateRegionsEb@4
_ZN6webrtc13SincResampler16InitializeKernelEv
_ZN6webrtc13SincResampler29InitializeCPUSpecificFeaturesEv
_ZN6webrtc13SincResampler5FlushEv
_ZN6webrtc13SincResampler8ResampleEjPf@8
_ZN6webrtc13SincResampler8SetRatioEd@8
_ZN6webrtc13SincResamplerC1EdjPNS_21SincResamplerCallbackE@16
_ZN6webrtc13SincResamplerC2EdjPNS_21SincResamplerCallbackE@16
_ZN6webrtc13SincResamplerD0Ev
_ZN6webrtc13SincResamplerD1Ev
_ZN6webrtc13SincResamplerD2Ev
_ZN6webrtc13StandaloneVad11GetActivityEPdj@8
_ZN6webrtc13StandaloneVad6CreateEv
_ZN6webrtc13StandaloneVad8AddAudioEPKsj@8
_ZN6webrtc13StandaloneVad8set_modeEi@4
_ZN6webrtc13StandaloneVadC1EP13WebRtcVadInst@4
_ZN6webrtc13StandaloneVadC2EP13WebRtcVadInst@4
_ZN6webrtc13StandaloneVadD1Ev
_ZN6webrtc13StandaloneVadD2Ev
_ZN6webrtc13ThreadWindows11SetPriorityENS_14ThreadPriorityE@4
_ZN6webrtc13ThreadWindows11StartThreadEPv@4@4
_ZN6webrtc13ThreadWindows3RunEv
_ZN6webrtc13ThreadWindows4StopEv
_ZN6webrtc13ThreadWindows5StartEv
_ZN6webrtc13ThreadWindowsC1EPFbPvES1_PKc@12
_ZN6webrtc13ThreadWindowsC2EPFbPvES1_PKc@12
_ZN6webrtc13ThreadWindowsD0Ev
_ZN6webrtc13ThreadWindowsD1Ev
_ZN6webrtc13ThreadWindowsD2Ev
_ZN6webrtc13ThreadWrapper11GetThreadIdEv ; Check!!! Couldn't determine function argument count. Function doesn't return. 
_ZN6webrtc13ThreadWrapperD0Ev
_ZN6webrtc13ThreadWrapperD1Ev
_ZN6webrtc14AudioConverter6CreateEijij
_ZN6webrtc14AudioConverterC1Eijij@16
_ZN6webrtc14AudioConverterC1Ev
_ZN6webrtc14AudioConverterC2Eijij@16
_ZN6webrtc14AudioConverterC2Ev
_ZN6webrtc14AudioConverterD0Ev
_ZN6webrtc14AudioConverterD1Ev
_ZN6webrtc14AzimuthToPointEf
_ZN6webrtc14HighPassFilterD0Ev
_ZN6webrtc14HighPassFilterD1Ev
_ZN6webrtc14LevelEstimatorD0Ev
_ZN6webrtc14LevelEstimatorD1Ev
_ZN6webrtc14PoleZeroFilter6CreateEPKfjS2_j
_ZN6webrtc14PoleZeroFilter6FilterEPKsjPf@12
_ZN6webrtc14PoleZeroFilterC1EPKfjS2_j@16
_ZN6webrtc14PoleZeroFilterC2EPKfjS2_j@16
_ZN6webrtc14UpmixConverter7ConvertEPKPKfjPKPfj@16
_ZN6webrtc14UpmixConverterD0Ev
_ZN6webrtc14UpmixConverterD1Ev
_ZN6webrtc14ValidAlignmentEj
_ZN6webrtc14VoiceDetectionD0Ev
_ZN6webrtc14VoiceDetectionD1Ev
_ZN6webrtc15AudioProcessing20kMaxAECMSampleRateHzE DATA
_ZN6webrtc15AudioProcessing20kNativeSampleRatesHzE DATA
_ZN6webrtc15AudioProcessing21kNumNativeSampleRatesE DATA
_ZN6webrtc15AudioProcessing22kMaxNativeSampleRateHzE DATA
_ZN6webrtc15AudioProcessing34StartDebugRecordingForPlatformFileEPv@4
_ZN6webrtc15AudioProcessing6CreateERKNS_6ConfigE
_ZN6webrtc15AudioProcessing6CreateERKNS_6ConfigEPNS_10BeamformerIfEE
_ZN6webrtc15AudioProcessing6CreateEv
_ZN6webrtc15AudioProcessingD0Ev
_ZN6webrtc15AudioProcessingD1Ev
_ZN6webrtc15AudioRingBuffer23MoveReadPositionForwardEj@4
_ZN6webrtc15AudioRingBuffer24MoveReadPositionBackwardEj@4
_ZN6webrtc15AudioRingBuffer4ReadEPKPfjj@12
_ZN6webrtc15AudioRingBuffer5WriteEPKPKfjj@12
_ZN6webrtc15AudioRingBufferC1Ejj@8
_ZN6webrtc15AudioRingBufferC2Ejj@8
_ZN6webrtc15AudioRingBufferD1Ev
_ZN6webrtc15AudioRingBufferD2Ev
_ZN6webrtc15BlockerCallbackD0Ev
_ZN6webrtc15BlockerCallbackD1Ev
_ZN6webrtc15FileWrapperImpl13CloseFileImplEv
_ZN6webrtc15FileWrapperImpl14SetMaxFileSizeEj@4
_ZN6webrtc15FileWrapperImpl18OpenFromFileHandleEP6_iobufbbb@16
_ZN6webrtc15FileWrapperImpl4ReadEPvj@8
_ZN6webrtc15FileWrapperImpl5FlushEv
_ZN6webrtc15FileWrapperImpl5WriteEPKvj@8
_ZN6webrtc15FileWrapperImpl6RewindEv
_ZN6webrtc15FileWrapperImpl8OpenFileEPKcbbb@16
_ZN6webrtc15FileWrapperImpl9CloseFileEv
_ZN6webrtc15FileWrapperImpl9FlushImplEv
_ZN6webrtc15FileWrapperImpl9WriteTextEPKcz
_ZN6webrtc15FileWrapperImplC1Ev
_ZN6webrtc15FileWrapperImplC2Ev
_ZN6webrtc15FileWrapperImplD0Ev
_ZN6webrtc15FileWrapperImplD1Ev
_ZN6webrtc15FileWrapperImplD2Ev
_ZN6webrtc15FloatS16ToFloatEPKfjPf
_ZN6webrtc15FloatToFloatS16EPKfjPf
_ZN6webrtc15GainControlImpl10InitializeEv
_ZN6webrtc15GainControlImpl14enable_limiterEb@4
_ZN6webrtc15GainControlImpl18ProcessRenderAudioEPNS_11AudioBufferE@4
_ZN6webrtc15GainControlImpl19AnalyzeCaptureAudioEPNS_11AudioBufferE@4
_ZN6webrtc15GainControlImpl19ProcessCaptureAudioEPNS_11AudioBufferE@4
_ZN6webrtc15GainControlImpl19stream_analog_levelEv
_ZN6webrtc15GainControlImpl21set_target_level_dbfsEi@4
_ZN6webrtc15GainControlImpl23set_analog_level_limitsEii@8
_ZN6webrtc15GainControlImpl23set_compression_gain_dbEi@4
_ZN6webrtc15GainControlImpl23set_stream_analog_levelEi@4
_ZN6webrtc15GainControlImpl6EnableEb@4
_ZN6webrtc15GainControlImpl8set_modeENS_11GainControl4ModeE@4
_ZN6webrtc15GainControlImplC1EPKNS_15AudioProcessingEPNS_22CriticalSectionWrapperE@8
_ZN6webrtc15GainControlImplC2EPKNS_15AudioProcessingEPNS_22CriticalSectionWrapperE@8
_ZN6webrtc15GainControlImplD0Ev
_ZN6webrtc15GainControlImplD1Ev
_ZN6webrtc15GainControlImplD2Ev
_ZN6webrtc15IFChannelBuffer4fbufEv
_ZN6webrtc15IFChannelBuffer4ibufEv
_ZN6webrtc15IFChannelBufferC1Ejij@12
_ZN6webrtc15IFChannelBufferC2Ejij@12
_ZN6webrtc15LappedTransform10BlockThunk12ProcessBlockEPKPKfjiiPKPf@20
_ZN6webrtc15LappedTransform10BlockThunkD0Ev
_ZN6webrtc15LappedTransform10BlockThunkD1Ev
_ZN6webrtc15LappedTransform12ProcessChunkEPKPKfPKPf@8
_ZN6webrtc15LappedTransform8CallbackD0Ev
_ZN6webrtc15LappedTransform8CallbackD1Ev
_ZN6webrtc15LappedTransformC1EiijPKfjjPNS0_8CallbackE@28
_ZN6webrtc15LappedTransformC2EiijPKfjjPNS0_8CallbackE@28
_ZN6webrtc15LappedTransformD1Ev
_ZN6webrtc15SparseFIRFilter6FilterEPKfjPf@12
_ZN6webrtc15SparseFIRFilterC1EPKfjjj@16
_ZN6webrtc15SparseFIRFilterC2EPKfjjj@16
_ZN6webrtc15SplittingFilter16TwoBandsAnalysisEPKNS_15IFChannelBufferEPS1_@8
_ZN6webrtc15SplittingFilter17TwoBandsSynthesisEPKNS_15IFChannelBufferEPS1_@8
_ZN6webrtc15SplittingFilter18ThreeBandsAnalysisEPKNS_15IFChannelBufferEPS1_@8
_ZN6webrtc15SplittingFilter19ThreeBandsSynthesisEPKNS_15IFChannelBufferEPS1_@8
_ZN6webrtc15SplittingFilter8AnalysisEPKNS_15IFChannelBufferEPS1_@8
_ZN6webrtc15SplittingFilter9SynthesisEPKNS_15IFChannelBufferEPS1_@8
_ZN6webrtc15SplittingFilterC1Eijj
_ZN6webrtc15SplittingFilterC2Eijj
_ZN6webrtc15TypingDetection13SetParametersEiiiiii@24
_ZN6webrtc15TypingDetection31TimeSinceLastDetectionInSecondsEv
_ZN6webrtc15TypingDetection7ProcessEbb@8
_ZN6webrtc15TypingDetectionC1Ev
_ZN6webrtc15TypingDetectionC2Ev
_ZN6webrtc15TypingDetectionD0Ev
_ZN6webrtc15TypingDetectionD1Ev
_ZN6webrtc15TypingDetectionD2Ev
_ZN6webrtc15VolumeCallbacksD0Ev
_ZN6webrtc15VolumeCallbacksD1Ev
_ZN6webrtc15WindowGenerator19KaiserBesselDerivedEfjPf
_ZN6webrtc15WindowGenerator7HanningEiPf
_ZN6webrtc15intelligibility11GainApplier5ApplyEPKSt7complexIfEPS3_@8
_ZN6webrtc15intelligibility11GainApplierC1Ejf@8
_ZN6webrtc15intelligibility11GainApplierC2Ejf@8
_ZN6webrtc15intelligibility12UpdateFactorEfff
_ZN6webrtc15intelligibility13VarianceArray10ApplyScaleEf@4
_ZN6webrtc15intelligibility13VarianceArray11BlockedStepEPKSt7complexIfEb@8
_ZN6webrtc15intelligibility13VarianceArray12InfiniteStepEPKSt7complexIfEb@8
_ZN6webrtc15intelligibility13VarianceArray12WindowedStepEPKSt7complexIfEb@8
_ZN6webrtc15intelligibility13VarianceArray23BlockBasedMovingAverageEPKSt7complexIfEb@8
_ZN6webrtc15intelligibility13VarianceArray5ClearEv
_ZN6webrtc15intelligibility13VarianceArray9DecayStepEPKSt7complexIfEb@8
_ZN6webrtc15intelligibility13VarianceArrayC1EjNS1_8StepTypeEjf@16
_ZN6webrtc15intelligibility13VarianceArrayC2EjNS1_8StepTypeEjf@16
_ZN6webrtc15intelligibility13VarianceArrayD1Ev
_ZN6webrtc15intelligibility15AddDitherIfZeroEf
_ZN6webrtc15intelligibility7NewMeanESt7complexIfES2_j
_ZN6webrtc15intelligibility9AddToMeanESt7complexIfEjPS2_
_ZN6webrtc15intelligibility9zerofudgeESt7complexIfE
_ZN6webrtc16AgcManagerDirect10InitializeEv
_ZN6webrtc16AgcManagerDirect10UpdateGainEv
_ZN6webrtc16AgcManagerDirect11SetMaxLevelEi@4
_ZN6webrtc16AgcManagerDirect15SetCaptureMutedEb@4
_ZN6webrtc16AgcManagerDirect16UpdateCompressorEv
_ZN6webrtc16AgcManagerDirect17AnalyzePreProcessEPsij@12
_ZN6webrtc16AgcManagerDirect17voice_probabilityEv ; Check!!! Couldn't determine function argument count. Function doesn't return. 
_ZN6webrtc16AgcManagerDirect19CheckVolumeAndResetEv
_ZN6webrtc16AgcManagerDirect7ProcessEPKsji@12
_ZN6webrtc16AgcManagerDirect8SetLevelEi@4
_ZN6webrtc16AgcManagerDirectC1EPNS_11GainControlEPNS_15VolumeCallbacksEi@12
_ZN6webrtc16AgcManagerDirectC1EPNS_3AgcEPNS_11GainControlEPNS_15VolumeCallbacksEi@16
_ZN6webrtc16AgcManagerDirectC2EPNS_11GainControlEPNS_15VolumeCallbacksEi@12
_ZN6webrtc16AgcManagerDirectC2EPNS_3AgcEPNS_11GainControlEPNS_15VolumeCallbacksEi@16
_ZN6webrtc16AgcManagerDirectD1Ev
_ZN6webrtc16AgcManagerDirectD2Ev
_ZN6webrtc16ArePerpendicularERKNS_14CartesianPointIfEES3_
_ZN6webrtc16DownmixConverter7ConvertEPKPKfjPKPfj@16
_ZN6webrtc16DownmixConverterD0Ev
_ZN6webrtc16DownmixConverterD1Ev
_ZN6webrtc16EchoCancellationD0Ev
_ZN6webrtc16EchoCancellationD1Ev
_ZN6webrtc16NoiseSuppressionD0Ev
_ZN6webrtc16NoiseSuppressionD1Ev
_ZN6webrtc16RealFourierOouraC1Ei@4
_ZN6webrtc16RealFourierOouraC2Ei@4
_ZN6webrtc16RealFourierOouraD0Ev
_ZN6webrtc16RealFourierOouraD1Ev
_ZN6webrtc17EchoControlMobile20echo_path_size_bytesEv
_ZN6webrtc17EchoControlMobileD0Ev
_ZN6webrtc17EchoControlMobileD1Ev
_ZN6webrtc17GetMinimumSpacingERKSt6vectorINS_14CartesianPointIfEESaIS2_EE
_ZN6webrtc17GetNormalIfPlanarERKSt6vectorINS_14CartesianPointIfEESaIS2_EE
_ZN6webrtc17PushSincResampler3RunEjPf@8
_ZN6webrtc17PushSincResampler8ResampleEPKfjPfj@16
_ZN6webrtc17PushSincResampler8ResampleEPKsjPsj@16
_ZN6webrtc17PushSincResamplerC1Ejj@8
_ZN6webrtc17PushSincResamplerC2Ejj@8
_ZN6webrtc17PushSincResamplerD0Ev
_ZN6webrtc17PushSincResamplerD1Ev
_ZN6webrtc17PushSincResamplerD2Ev
_ZN6webrtc17ResampleConverter7ConvertEPKPKfjPKPfj@16
_ZN6webrtc17ResampleConverterD0Ev
_ZN6webrtc17ResampleConverterD1Ev
_ZN6webrtc17STLDeleteElementsISt6vectorIPNS_13ComplexMatrixIfEESaIS4_EEEEvPT_
_ZN6webrtc17STLDeleteElementsISt6vectorIPNS_14AudioConverterESaIS3_EEEEvPT_
_ZN6webrtc17STLDeleteElementsISt6vectorIPNS_15SparseFIRFilterESaIS3_EEEEvPT_
_ZN6webrtc17STLDeleteElementsISt6vectorIPNS_17PushSincResamplerESaIS3_EEEEvPT_
_ZN6webrtc17TransientDetector23ReferenceDetectionValueEPKfj@8
_ZN6webrtc17TransientDetector6DetectEPKfjS2_j@16
_ZN6webrtc17TransientDetectorC1Ei@4
_ZN6webrtc17TransientDetectorC2Ei@4
_ZN6webrtc17TransientDetectorD1Ev
_ZN6webrtc17TransientDetectorD2Ev
_ZN6webrtc17VadCircularBuffer11BufferLevelEv
_ZN6webrtc17VadCircularBuffer15RemoveTransientEid@12
_ZN6webrtc17VadCircularBuffer3SetEid@12
_ZN6webrtc17VadCircularBuffer4MeanEv
_ZN6webrtc17VadCircularBuffer5ResetEv
_ZN6webrtc17VadCircularBuffer6CreateEi
_ZN6webrtc17VadCircularBuffer6InsertEd@8
_ZN6webrtc17VadCircularBufferC1Ei@4
_ZN6webrtc17VadCircularBufferC2Ei@4
_ZN6webrtc17VadCircularBufferD1Ev
_ZN6webrtc17VadCircularBufferD2Ev
_ZN6webrtc18HighPassFilterImpl19ProcessCaptureAudioEPNS_11AudioBufferE@4
_ZN6webrtc18HighPassFilterImpl6EnableEb@4
_ZN6webrtc18HighPassFilterImplC1EPKNS_15AudioProcessingEPNS_22CriticalSectionWrapperE@8
_ZN6webrtc18HighPassFilterImplC2EPKNS_15AudioProcessingEPNS_22CriticalSectionWrapperE@8
_ZN6webrtc18HighPassFilterImplD0Ev
_ZN6webrtc18HighPassFilterImplD1Ev
_ZN6webrtc18HighPassFilterImplD2Ev
_ZN6webrtc18LevelEstimatorImpl13ProcessStreamEPNS_11AudioBufferE@4
_ZN6webrtc18LevelEstimatorImpl3RMSEv
_ZN6webrtc18LevelEstimatorImpl6EnableEb@4
_ZN6webrtc18LevelEstimatorImplC1EPKNS_15AudioProcessingEPNS_22CriticalSectionWrapperE@8
_ZN6webrtc18LevelEstimatorImplC2EPKNS_15AudioProcessingEPNS_22CriticalSectionWrapperE@8
_ZN6webrtc18LevelEstimatorImplD0Ev
_ZN6webrtc18LevelEstimatorImplD1Ev
_ZN6webrtc18LevelEstimatorImplD2Ev
_ZN6webrtc18RTPHeaderExtensionC1Ev
_ZN6webrtc18RTPHeaderExtensionC2Ev
_ZN6webrtc18StreamDataCountersC1Ev
_ZN6webrtc18StreamDataCountersC2Ev
_ZN6webrtc18VoiceDetectionImpl10InitializeEv
_ZN6webrtc18VoiceDetectionImpl14set_likelihoodENS_14VoiceDetection10LikelihoodE@4
_ZN6webrtc18VoiceDetectionImpl17set_frame_size_msEi@4
_ZN6webrtc18VoiceDetectionImpl19ProcessCaptureAudioEPNS_11AudioBufferE@4
_ZN6webrtc18VoiceDetectionImpl20set_stream_has_voiceEb@4
_ZN6webrtc18VoiceDetectionImpl6EnableEb@4
_ZN6webrtc18VoiceDetectionImplC1EPKNS_15AudioProcessingEPNS_22CriticalSectionWrapperE@8
_ZN6webrtc18VoiceDetectionImplC2EPKNS_15AudioProcessingEPNS_22CriticalSectionWrapperE@8
_ZN6webrtc18VoiceDetectionImplD0Ev
_ZN6webrtc18VoiceDetectionImplD1Ev
_ZN6webrtc18VoiceDetectionImplD2Ev
_ZN6webrtc19AudioProcessingImpl10InitializeERKNS_16ProcessingConfigE@4
_ZN6webrtc19AudioProcessingImpl10InitializeEiiiNS_15AudioProcessing13ChannelLayoutES2_S2_@24
_ZN6webrtc19AudioProcessingImpl10InitializeEv
_ZN6webrtc19AudioProcessingImpl13ProcessStreamEPKPKfRKNS_12StreamConfigES7_PKPf@16
_ZN6webrtc19AudioProcessingImpl13ProcessStreamEPKPKfjiNS_15AudioProcessing13ChannelLayoutEiS6_PKPf@28
_ZN6webrtc19AudioProcessingImpl13ProcessStreamEPNS_10AudioFrameE@4
_ZN6webrtc19AudioProcessingImpl15SetExtraOptionsERKNS_6ConfigE@4
_ZN6webrtc19AudioProcessingImpl16InitializeLockedERKNS_16ProcessingConfigE@4
_ZN6webrtc19AudioProcessingImpl16InitializeLockedEv
_ZN6webrtc19AudioProcessingImpl18StopDebugRecordingEv
_ZN6webrtc19AudioProcessingImpl19InitializeTransientEv
_ZN6webrtc19AudioProcessingImpl19ProcessStreamLockedEv
_ZN6webrtc19AudioProcessingImpl19StartDebugRecordingEP6_iobuf@4
_ZN6webrtc19AudioProcessingImpl19StartDebugRecordingEPKc@4
_ZN6webrtc19AudioProcessingImpl19set_delay_offset_msEi@4
_ZN6webrtc19AudioProcessingImpl19set_stream_delay_msEi@4
_ZN6webrtc19AudioProcessingImpl20AnalyzeReverseStreamEPKPKfRKNS_12StreamConfigES7_@12
_ZN6webrtc19AudioProcessingImpl20AnalyzeReverseStreamEPKPKfjiNS_15AudioProcessing13ChannelLayoutE@16
_ZN6webrtc19AudioProcessingImpl20AnalyzeReverseStreamEPNS_10AudioFrameE@4
_ZN6webrtc19AudioProcessingImpl20InitializeBeamformerEv
_ZN6webrtc19AudioProcessingImpl20ProcessReverseStreamEPKPKfRKNS_12StreamConfigES7_PKPf@16
_ZN6webrtc19AudioProcessingImpl20ProcessReverseStreamEPNS_10AudioFrameE@4
_ZN6webrtc19AudioProcessingImpl21MaybeInitializeLockedERKNS_16ProcessingConfigE@4
_ZN6webrtc19AudioProcessingImpl21MaybeUpdateHistogramsEv
_ZN6webrtc19AudioProcessingImpl22set_stream_key_pressedEb@4
_ZN6webrtc19AudioProcessingImpl24set_output_will_be_mutedEb@4
_ZN6webrtc19AudioProcessingImpl25InitializeExperimentalAgcEv
_ZN6webrtc19AudioProcessingImpl25InitializeIntelligibilityEv
_ZN6webrtc19AudioProcessingImpl25UpdateHistogramsOnCallEndEv
_ZN6webrtc19AudioProcessingImpl26ProcessReverseStreamLockedEv
_ZN6webrtc19AudioProcessingImpl34StartDebugRecordingForPlatformFileEPv ; Check!!! Couldn't determine function argument count. Function doesn't return. 
_ZN6webrtc19AudioProcessingImplC1ERKNS_6ConfigE@4
_ZN6webrtc19AudioProcessingImplC1ERKNS_6ConfigEPNS_10BeamformerIfEE@8
_ZN6webrtc19AudioProcessingImplC2ERKNS_6ConfigE@4
_ZN6webrtc19AudioProcessingImplC2ERKNS_6ConfigEPNS_10BeamformerIfEE@8
_ZN6webrtc19AudioProcessingImplD0Ev
_ZN6webrtc19AudioProcessingImplD1Ev
_ZN6webrtc19AudioProcessingImplD2Ev
_ZN6webrtc19NonlinearBeamformer10ApplyMasksEPKPKSt7complexIfEPKPS2_@8
_ZN6webrtc19NonlinearBeamformer10InitializeEii@8
_ZN6webrtc19NonlinearBeamformer12ProcessChunkERKNS_13ChannelBufferIfEEPS2_@8
_ZN6webrtc19NonlinearBeamformer12kNumFreqBinsE DATA
_ZN6webrtc19NonlinearBeamformer13MaskRangeMeanEjj@8
_ZN6webrtc19NonlinearBeamformer16InitInterfAnglesEv
_ZN6webrtc19NonlinearBeamformer16NormalizeCovMatsEv
_ZN6webrtc19NonlinearBeamformer17InitDelaySumMasksEv
_ZN6webrtc19NonlinearBeamformer17InitInterfCovMatsEv
_ZN6webrtc19NonlinearBeamformer17InitTargetCovMatsEv
_ZN6webrtc19NonlinearBeamformer17ProcessAudioBlockEPKPKSt7complexIfEijiPKPS2_@20
_ZN6webrtc19NonlinearBeamformer17is_target_presentEv
_ZN6webrtc19NonlinearBeamformer18InitDiffuseCovMatsEv
_ZN6webrtc19NonlinearBeamformer21kHalfBeamWidthRadiansE DATA
_ZN6webrtc19NonlinearBeamformer22ApplyMaskTimeSmoothingEv
_ZN6webrtc19NonlinearBeamformer22EstimateTargetPresenceEv
_ZN6webrtc19NonlinearBeamformer23CalculatePostfilterMaskERKNS_13ComplexMatrixIfEEfff@16
_ZN6webrtc19NonlinearBeamformer27ApplyLowFrequencyCorrectionEv
_ZN6webrtc19NonlinearBeamformer27ApplyMaskFrequencySmoothingEv
_ZN6webrtc19NonlinearBeamformer28ApplyHighFrequencyCorrectionEv
_ZN6webrtc19NonlinearBeamformer32InitLowFrequencyCorrectionRangesEv
_ZN6webrtc19NonlinearBeamformer33InitHighFrequencyCorrectionRangesEv
_ZN6webrtc19NonlinearBeamformer5AimAtERKNS_14SphericalPointIfEE@4
_ZN6webrtc19NonlinearBeamformer8IsInBeamERKNS_14SphericalPointIfEE@4
_ZN6webrtc19NonlinearBeamformerC1ERKSt6vectorINS_14CartesianPointIfEESaIS3_EENS_14SphericalPointIfEE@16
_ZN6webrtc19NonlinearBeamformerC2ERKSt6vectorINS_14CartesianPointIfEESaIS3_EENS_14SphericalPointIfEE@16
_ZN6webrtc19NonlinearBeamformerD0Ev
_ZN6webrtc19NonlinearBeamformerD1Ev
_ZN6webrtc19ProcessingComponent10InitializeEv
_ZN6webrtc19ProcessingComponent15EnableComponentEb@4
_ZN6webrtc19ProcessingComponent15SetExtraOptionsERKNS_6ConfigE@4
_ZN6webrtc19ProcessingComponent7DestroyEv
_ZN6webrtc19ProcessingComponent9ConfigureEv
_ZN6webrtc19ProcessingComponentC1Ev
_ZN6webrtc19ProcessingComponentC2Ev
_ZN6webrtc19ProcessingComponentD0Ev
_ZN6webrtc19ProcessingComponentD1Ev
_ZN6webrtc19ProcessingComponentD2Ev
_ZN6webrtc19ThreeBandFilterBank10UpModulateEPKPKfjjPf@16
_ZN6webrtc19ThreeBandFilterBank12DownModulateEPKfjjPKPf@16
_ZN6webrtc19ThreeBandFilterBank8AnalysisEPKfjPKPf@12
_ZN6webrtc19ThreeBandFilterBank9SynthesisEPKPKfjPf@12
_ZN6webrtc19ThreeBandFilterBankC1Ej@4
_ZN6webrtc19ThreeBandFilterBankC2Ej@4
_ZN6webrtc19TransientSuppressor10InitializeEiii@12
_ZN6webrtc19TransientSuppressor13UpdateBuffersEPf@4
_ZN6webrtc19TransientSuppressor14UpdateKeypressEb@4
_ZN6webrtc19TransientSuppressor15HardRestorationEPf@4
_ZN6webrtc19TransientSuppressor15SoftRestorationEPf@4
_ZN6webrtc19TransientSuppressor17UpdateRestorationEf@4
_ZN6webrtc19TransientSuppressor8SuppressEPfS1_S1_@12
_ZN6webrtc19TransientSuppressor8SuppressEPfjiPKfjS3_jfb@36
_ZN6webrtc19TransientSuppressorC1Ev
_ZN6webrtc19TransientSuppressorC2Ev
_ZN6webrtc19TransientSuppressorD1Ev
_ZN6webrtc19TransientSuppressorD2Ev
_ZN6webrtc19initialize_srw_lockE DATA
_ZN6webrtc20CompositionConverter7ConvertEPKPKfjPKPfj ; Check!!! Couldn't determine function argument count. Function doesn't return. 
_ZN6webrtc20CompositionConverterD0Ev
_ZN6webrtc20CompositionConverterD1Ev
_ZN6webrtc20EchoCancellationImpl10GetMetricsEPNS_16EchoCancellation7MetricsE@4
_ZN6webrtc20EchoCancellationImpl10InitializeEv
_ZN6webrtc20EchoCancellationImpl14enable_metricsEb@4
_ZN6webrtc20EchoCancellationImpl15GetDelayMetricsEPiS1_@8
_ZN6webrtc20EchoCancellationImpl15GetDelayMetricsEPiS1_Pf@12
_ZN6webrtc20EchoCancellationImpl15SetExtraOptionsERKNS_6ConfigE@4
_ZN6webrtc20EchoCancellationImpl18ProcessRenderAudioEPKNS_11AudioBufferE@4
_ZN6webrtc20EchoCancellationImpl19ProcessCaptureAudioEPNS_11AudioBufferE@4
_ZN6webrtc20EchoCancellationImpl20enable_delay_loggingEb@4
_ZN6webrtc20EchoCancellationImpl21set_suppression_levelENS_16EchoCancellation16SuppressionLevelE@4
_ZN6webrtc20EchoCancellationImpl24set_stream_drift_samplesEi@4
_ZN6webrtc20EchoCancellationImpl25enable_drift_compensationEb@4
_ZN6webrtc20EchoCancellationImpl6EnableEb@4
_ZN6webrtc20EchoCancellationImplC1EPKNS_15AudioProcessingEPNS_22CriticalSectionWrapperE@8
_ZN6webrtc20EchoCancellationImplC2EPKNS_15AudioProcessingEPNS_22CriticalSectionWrapperE@8
_ZN6webrtc20EchoCancellationImplD0Ev
_ZN6webrtc20EchoCancellationImplD1Ev
_ZN6webrtc20EchoCancellationImplD2Ev
_ZN6webrtc20GainControlForNewAgc12GetMicVolumeEv
_ZN6webrtc20GainControlForNewAgc12SetMicVolumeEi@4
_ZN6webrtc20GainControlForNewAgc14enable_limiterEb@4
_ZN6webrtc20GainControlForNewAgc19stream_analog_levelEv
_ZN6webrtc20GainControlForNewAgc21set_target_level_dbfsEi@4
_ZN6webrtc20GainControlForNewAgc23set_analog_level_limitsEii@8
_ZN6webrtc20GainControlForNewAgc23set_compression_gain_dbEi@4
_ZN6webrtc20GainControlForNewAgc23set_stream_analog_levelEi@4
_ZN6webrtc20GainControlForNewAgc6EnableEb ; Check!!! Couldn't determine function argument count. Function doesn't return. 
_ZN6webrtc20GainControlForNewAgc8set_modeENS_11GainControl4ModeE@4
_ZN6webrtc20GainControlForNewAgcD0Ev
_ZN6webrtc20GainControlForNewAgcD1Ev
_ZN6webrtc20GetDirectionIfLinearERKSt6vectorINS_14CartesianPointIfEESaIS2_EE
_ZN6webrtc20NoiseSuppressionImpl19AnalyzeCaptureAudioEPNS_11AudioBufferE@4
_ZN6webrtc20NoiseSuppressionImpl19ProcessCaptureAudioEPNS_11AudioBufferE@4
_ZN6webrtc20NoiseSuppressionImpl6EnableEb@4
_ZN6webrtc20NoiseSuppressionImpl9set_levelENS_16NoiseSuppression5LevelE@4
_ZN6webrtc20NoiseSuppressionImplC1EPKNS_15AudioProcessingEPNS_22CriticalSectionWrapperE@8
_ZN6webrtc20NoiseSuppressionImplC2EPKNS_15AudioProcessingEPNS_22CriticalSectionWrapperE@8
_ZN6webrtc20NoiseSuppressionImplD0Ev
_ZN6webrtc20NoiseSuppressionImplD1Ev
_ZN6webrtc20NoiseSuppressionImplD2Ev
_ZN6webrtc21EchoControlMobileImpl10InitializeEv
_ZN6webrtc21EchoControlMobileImpl11SetEchoPathEPKvj@8
_ZN6webrtc21EchoControlMobileImpl16set_routing_modeENS_17EchoControlMobile11RoutingModeE@4
_ZN6webrtc21EchoControlMobileImpl18ProcessRenderAudioEPKNS_11AudioBufferE@4
_ZN6webrtc21EchoControlMobileImpl19ProcessCaptureAudioEPNS_11AudioBufferE@4
_ZN6webrtc21EchoControlMobileImpl20enable_comfort_noiseEb@4
_ZN6webrtc21EchoControlMobileImpl6EnableEb@4
_ZN6webrtc21EchoControlMobileImplC1EPKNS_15AudioProcessingEPNS_22CriticalSectionWrapperE@8
_ZN6webrtc21EchoControlMobileImplC2EPKNS_15AudioProcessingEPNS_22CriticalSectionWrapperE@8
_ZN6webrtc21EchoControlMobileImplD0Ev
_ZN6webrtc21EchoControlMobileImplD1Ev
_ZN6webrtc21EchoControlMobileImplD2Ev
_ZN6webrtc21SincResamplerCallbackD0Ev
_ZN6webrtc21SincResamplerCallbackD1Ev
_ZN6webrtc21VoiceActivityDetector12ProcessChunkEPKsji@12
_ZN6webrtc21VoiceActivityDetectorC1Ev
_ZN6webrtc21VoiceActivityDetectorC2Ev
_ZN6webrtc22CriticalSectionWindows5EnterEv
_ZN6webrtc22CriticalSectionWindows5LeaveEv
_ZN6webrtc22CriticalSectionWindowsC1Ev
_ZN6webrtc22CriticalSectionWindowsC2Ev
_ZN6webrtc22CriticalSectionWindowsD0Ev
_ZN6webrtc22CriticalSectionWindowsD1Ev
_ZN6webrtc22CriticalSectionWindowsD2Ev
_ZN6webrtc22CriticalSectionWrapper21CreateCriticalSectionEv
_ZN6webrtc22CriticalSectionWrapperD0Ev
_ZN6webrtc22CriticalSectionWrapperD1Ev
_ZN6webrtc22GetArrayNormalIfExistsERKSt6vectorINS_14CartesianPointIfEESaIS2_EE
_ZN6webrtc22WriteFloatBufferToFileEPNS_11FileWrapperEjPKf
_ZN6webrtc22WriteInt16BufferToFileEPNS_11FileWrapperEjPKs
_ZN6webrtc23ConvertByteArrayToFloatEPKhPf
_ZN6webrtc23ConvertFloatToByteArrayEfPh
_ZN6webrtc23IntelligibilityEnhancer10DotProductEPKfS2_j
_ZN6webrtc23IntelligibilityEnhancer11GetBankSizeEij
_ZN6webrtc23IntelligibilityEnhancer13CreateErbBankEv
_ZN6webrtc23IntelligibilityEnhancer13DispatchAudioENS0_11AudioSourceEPKSt7complexIfEPS3_@12
_ZN6webrtc23IntelligibilityEnhancer14FilterVarianceEPKfPf@8
_ZN6webrtc23IntelligibilityEnhancer14SolveForLambdaEfff@12
_ZN6webrtc23IntelligibilityEnhancer14UpdateErbGainsEv
_ZN6webrtc23IntelligibilityEnhancer17AnalyzeClearBlockEf@4
_ZN6webrtc23IntelligibilityEnhancer17ProcessClearBlockEPKSt7complexIfEPS2_@8
_ZN6webrtc23IntelligibilityEnhancer17ProcessNoiseBlockEPKSt7complexIfEPS2_ ; Check!!! Couldn't determine function argument count. Function doesn't return. 
_ZN6webrtc23IntelligibilityEnhancer17TransformCallback17ProcessAudioBlockEPKPKSt7complexIfEijiPKPS3_@20
_ZN6webrtc23IntelligibilityEnhancer17TransformCallbackC1EPS0_NS0_11AudioSourceE@8
_ZN6webrtc23IntelligibilityEnhancer17TransformCallbackC2EPS0_NS0_11AudioSourceE@8
_ZN6webrtc23IntelligibilityEnhancer17TransformCallbackD0Ev
_ZN6webrtc23IntelligibilityEnhancer17TransformCallbackD1Ev
_ZN6webrtc23IntelligibilityEnhancer18ProcessRenderAudioEPKPfii@12
_ZN6webrtc23IntelligibilityEnhancer19AnalyzeCaptureAudioEPKPfii@12
_ZN6webrtc23IntelligibilityEnhancer24SolveForGainsGivenLambdaEfjPf@12
_ZN6webrtc23IntelligibilityEnhancerC1ERKNS0_6ConfigE@4
_ZN6webrtc23IntelligibilityEnhancerC1Ev
_ZN6webrtc23IntelligibilityEnhancerC2ERKNS0_6ConfigE@4
_ZN6webrtc23IntelligibilityEnhancerC2Ev
_ZN6webrtc23IntelligibilityEnhancerD1Ev
_ZN6webrtc23PWakeConditionVariable_E DATA
_ZN6webrtc23ReadFloatBufferFromFileEPNS_11FileWrapperEjPf
_ZN6webrtc23ReadInt16BufferFromFileEPNS_11FileWrapperEjPs
_ZN6webrtc23WriteDoubleBufferToFileEPNS_11FileWrapperEjPKd
_ZN6webrtc23acquire_srw_lock_sharedE DATA
_ZN6webrtc23release_srw_lock_sharedE DATA
_ZN6webrtc24ConditionVariableWrapper23CreateConditionVariableEv
_ZN6webrtc24ConditionVariableWrapperD0Ev
_ZN6webrtc24ConditionVariableWrapperD1Ev
_ZN6webrtc24ConvertByteArrayToDoubleEPKhPd
_ZN6webrtc24ConvertDoubleToByteArrayEdPh
_ZN6webrtc24DownmixInterleavedToMonoIsEEvPKT_jiPS1_
_ZN6webrtc24ReadDoubleBufferFromFileEPNS_11FileWrapperEjPd
_ZN6webrtc25ConditionVariableEventWin4WakeEv
_ZN6webrtc25ConditionVariableEventWin7SleepCSERNS_22CriticalSectionWrapperE@4
_ZN6webrtc25ConditionVariableEventWin7SleepCSERNS_22CriticalSectionWrapperEm@8
_ZN6webrtc25ConditionVariableEventWin7WakeAllEv
_ZN6webrtc25ConditionVariableEventWinC1Ev
_ZN6webrtc25ConditionVariableEventWinC2Ev
_ZN6webrtc25ConditionVariableEventWinD0Ev
_ZN6webrtc25ConditionVariableEventWinD1Ev
_ZN6webrtc25ConditionVariableEventWinD2Ev
_ZN6webrtc25CovarianceMatrixGenerator19PhaseAlignmentMasksEjjifRKSt6vectorINS_14CartesianPointIfEESaIS3_EEfPNS_13ComplexMatrixIfEE
_ZN6webrtc25CovarianceMatrixGenerator22AngledCovarianceMatrixEffjjjiRKSt6vectorINS_14CartesianPointIfEESaIS3_EEPNS_13ComplexMatrixIfEE
_ZN6webrtc25CovarianceMatrixGenerator23UniformCovarianceMatrixEfRKSt6vectorINS_14CartesianPointIfEESaIS3_EEPNS_13ComplexMatrixIfEE
_ZN6webrtc26ConditionVariableNativeWin4InitEv
_ZN6webrtc26ConditionVariableNativeWin4WakeEv
_ZN6webrtc26ConditionVariableNativeWin6CreateEv
_ZN6webrtc26ConditionVariableNativeWin7SleepCSERNS_22CriticalSectionWrapperE@4
_ZN6webrtc26ConditionVariableNativeWin7SleepCSERNS_22CriticalSectionWrapperEm@8
_ZN6webrtc26ConditionVariableNativeWin7WakeAllEv
_ZN6webrtc26ConditionVariableNativeWinC1Ev
_ZN6webrtc26ConditionVariableNativeWinC2Ev
_ZN6webrtc26ConditionVariableNativeWinD0Ev
_ZN6webrtc26ConditionVariableNativeWinD1Ev
_ZN6webrtc26ConditionVariableNativeWinD2Ev
_ZN6webrtc26PSleepConditionVariableCS_E DATA
_ZN6webrtc26PWakeAllConditionVariable_E DATA
_ZN6webrtc26STLDeleteContainerPointersIN9__gnu_cxx17__normal_iteratorIPPNS_13ChannelBufferIfEESt6vectorIS5_SaIS5_EEEEEEvT_SB_
_ZN6webrtc26STLDeleteContainerPointersIN9__gnu_cxx17__normal_iteratorIPPNS_19ThreeBandFilterBankESt6vectorIS4_SaIS4_EEEEEEvT_SA_
_ZN6webrtc26acquire_srw_lock_exclusiveE DATA
_ZN6webrtc26release_srw_lock_exclusiveE DATA
_ZN6webrtc29PInitializeConditionVariable_E DATA
_ZN6webrtc30ReadInt16FromFileToFloatBufferEPNS_11FileWrapperEjPf
_ZN6webrtc31ReadInt16FromFileToDoubleBufferEPNS_11FileWrapperEjPd
_ZN6webrtc3Agc13GetRmsErrorDbEPi@4
_ZN6webrtc3Agc14AnalyzePreprocEPKsj@8
_ZN6webrtc3Agc21set_target_level_dbfsEi@4
_ZN6webrtc3Agc5ResetEv
_ZN6webrtc3Agc7ProcessEPKsji@12
_ZN6webrtc3AgcC1Ev
_ZN6webrtc3AgcC2Ev
_ZN6webrtc3AgcD0Ev
_ZN6webrtc3AgcD1Ev
_ZN6webrtc3AgcD2Ev
_ZN6webrtc5Trace11CreateTraceEv
_ZN6webrtc5Trace11ReturnTraceEv
_ZN6webrtc5Trace12SetTraceFileEPKcb
_ZN6webrtc5Trace12level_filterEv
_ZN6webrtc5Trace13level_filter_E DATA
_ZN6webrtc5Trace16SetTraceCallbackEPNS_13TraceCallbackE
_ZN6webrtc5Trace16kTimestampLengthE DATA
_ZN6webrtc5Trace16set_level_filterEi
_ZN6webrtc5Trace18kBoilerplateLengthE DATA
_ZN6webrtc5Trace18kTimestampPositionE DATA
_ZN6webrtc5Trace3AddENS_10TraceLevelENS_11TraceModuleEiPKcz
_ZN6webrtc5Trace9TraceFileEPc
_ZN6webrtc6ConfigD1Ev
_ZN6webrtc6MatrixISt7complexIfEED0Ev
_ZN6webrtc6MatrixISt7complexIfEED1Ev
_ZN6webrtc7Blocker12ProcessChunkEPKPKfjiiPKPf@20
_ZN6webrtc7BlockerC1EjjiiPKfjPNS_15BlockerCallbackE@28
_ZN6webrtc7BlockerC2EjjiiPKfjPNS_15BlockerCallbackE@28
_ZN6webrtc7BlockerD1Ev
_ZN6webrtc7WPDNode6UpdateEPKfj@8
_ZN6webrtc7WPDNode8set_dataEPKfj@8
_ZN6webrtc7WPDNodeC1EjPKfj@12
_ZN6webrtc7WPDNodeC2EjPKfj@12
_ZN6webrtc7WPDNodeD1Ev
_ZN6webrtc7WPDNodeD2Ev
_ZN6webrtc7WPDTree6NodeAtEii@8
_ZN6webrtc7WPDTree6UpdateEPKfj@8
_ZN6webrtc7WPDTreeC1EjPKfS2_ji@20
_ZN6webrtc7WPDTreeC2EjPKfS2_ji@20
_ZN6webrtc7WPDTreeD1Ev
_ZN6webrtc7WPDTreeD2Ev
_ZN6webrtc7metrics12HistogramAddEPNS0_9HistogramERKSsi
_ZN6webrtc7metrics25HistogramFactoryGetCountsERKSsiii
_ZN6webrtc7metrics30HistogramFactoryGetEnumerationERKSsi
_ZN6webrtc8InStream6RewindEv
_ZN6webrtc8InStreamD0Ev
_ZN6webrtc8InStreamD1Ev
_ZN6webrtc8RMSLevel12ProcessMutedEj@4
_ZN6webrtc8RMSLevel3RMSEv
_ZN6webrtc8RMSLevel5ResetEv
_ZN6webrtc8RMSLevel7ProcessEPKsj@8
_ZN6webrtc8RMSLevelC1Ev
_ZN6webrtc8RMSLevelC2Ev
_ZN6webrtc8RMSLevelD1Ev
_ZN6webrtc8RMSLevelD2Ev
_ZN6webrtc9FIRFilter6CreateEPKfjj
_ZN6webrtc9FIRFilterD0Ev
_ZN6webrtc9FIRFilterD1Ev
_ZN6webrtc9Histogram10UpdateHistEii@8
_ZN6webrtc9Histogram11GetBinIndexEd@8
_ZN6webrtc9Histogram15RemoveTransientEv
_ZN6webrtc9Histogram26InsertNewestEntryAndUpdateEii@8
_ZN6webrtc9Histogram26RemoveOldestEntryAndUpdateEv
_ZN6webrtc9Histogram5ResetEv
_ZN6webrtc9Histogram6CreateEi
_ZN6webrtc9Histogram6CreateEv
_ZN6webrtc9Histogram6UpdateEdd@16
_ZN6webrtc9HistogramC1Ei@4
_ZN6webrtc9HistogramC1Ev
_ZN6webrtc9HistogramC2Ei@4
_ZN6webrtc9HistogramC2Ev
_ZN6webrtc9HistogramD1Ev
_ZN6webrtc9HistogramD2Ev
_ZN6webrtc9OutStream6RewindEv
_ZN6webrtc9OutStreamD0Ev
_ZN6webrtc9OutStreamD1Ev
_ZN6webrtc9RTPHeaderC1Ev
_ZN6webrtc9RTPHeaderC2Ev
_ZN6webrtc9RWLockWin10LoadModuleEv
_ZN6webrtc9RWLockWin17AcquireLockSharedEv
_ZN6webrtc9RWLockWin17ReleaseLockSharedEv
_ZN6webrtc9RWLockWin20AcquireLockExclusiveEv
_ZN6webrtc9RWLockWin20ReleaseLockExclusiveEv
_ZN6webrtc9RWLockWin6CreateEv
_ZN6webrtc9RWLockWinC1Ev
_ZN6webrtc9RWLockWinC2Ev
_ZN6webrtc9RWLockWinD0Ev
_ZN6webrtc9RWLockWinD1Ev
_ZN6webrtc9Resampler13ResetIfNeededEiii@12
_ZN6webrtc9Resampler4PushEPKsjPsjRj@20
_ZN6webrtc9Resampler5ResetEiii@12
_ZN6webrtc9ResamplerC1Eiii@12
_ZN6webrtc9ResamplerC1Ev
_ZN6webrtc9ResamplerC2Eiii@12
_ZN6webrtc9ResamplerC2Ev
_ZN6webrtc9ResamplerD1Ev
_ZN6webrtc9ResamplerD2Ev
_ZN6webrtc9TraceImpl11WriteToFileEPKct@8
_ZN6webrtc9TraceImpl13TraceFileImplEPc@4
_ZN6webrtc9TraceImpl14CreateInstanceEv
_ZN6webrtc9TraceImpl14StaticInstanceENS_14CountOperationENS_10TraceLevelE
_ZN6webrtc9TraceImpl16AddMessageToListEPKctNS_10TraceLevelE@12
_ZN6webrtc9TraceImpl16SetTraceFileImplEPKcb@8
_ZN6webrtc9TraceImpl20SetTraceCallbackImplEPNS_13TraceCallbackE@4
_ZN6webrtc9TraceImpl7AddImplENS_10TraceLevelENS_11TraceModuleEiPKc@16
_ZN6webrtc9TraceImpl8GetTraceENS_10TraceLevelE
_ZN6webrtc9TraceImplC1Ev
_ZN6webrtc9TraceImplC2Ev
_ZN6webrtc9TraceImplD0Ev
_ZN6webrtc9TraceImplD1Ev
_ZN6webrtc9TraceImplD2Ev
_ZNK3rtc12TryCritScope6lockedEv
_ZNK3rtc15CriticalSection20CurrentThreadIsOwnerEv
_ZNK3rtc15CriticalSection8IsLockedEv
_ZNK6webrtc11AudioBuffer10num_framesEv
_ZNK6webrtc11AudioBuffer10split_dataEv
_ZNK6webrtc11AudioBuffer12num_channelsEv
_ZNK6webrtc11AudioBuffer12split_data_fEv
_ZNK6webrtc11AudioBuffer13keyboard_dataEv
_ZNK6webrtc11AudioBuffer14channels_constEv
_ZNK6webrtc11AudioBuffer16channels_const_fEv
_ZNK6webrtc11AudioBuffer17split_bands_constEi@4
_ZNK6webrtc11AudioBuffer18low_pass_referenceEi@4
_ZNK6webrtc11AudioBuffer19num_frames_per_bandEv
_ZNK6webrtc11AudioBuffer19num_keyboard_framesEv
_ZNK6webrtc11AudioBuffer19split_bands_const_fEi@4
_ZNK6webrtc11AudioBuffer20split_channels_constENS_4BandE@4
_ZNK6webrtc11AudioBuffer22split_channels_const_fENS_4BandE@4
_ZNK6webrtc11AudioBuffer4dataEv
_ZNK6webrtc11AudioBuffer6data_fEv
_ZNK6webrtc11AudioBuffer8activityEv
_ZNK6webrtc11AudioBuffer9num_bandsEv
_ZNK6webrtc12TraceWindows15AddDateTimeInfoEPc@4
_ZNK6webrtc12TraceWindows7AddTimeEPcNS_10TraceLevelE@8
_ZNK6webrtc13SincResampler9ChunkSizeEv
_ZNK6webrtc14AudioConverter10CheckSizesEjj@8
_ZNK6webrtc15AudioRingBuffer19ReadFramesAvailableEv
_ZNK6webrtc15AudioRingBuffer20WriteFramesAvailableEv
_ZNK6webrtc15FileWrapperImpl4OpenEv
_ZNK6webrtc15FileWrapperImpl8FileNameEPcj@8
_ZNK6webrtc15GainControlImpl10is_enabledEv
_ZNK6webrtc15GainControlImpl12CreateHandleEv
_ZNK6webrtc15GainControlImpl13DestroyHandleEPv@4
_ZNK6webrtc15GainControlImpl14GetHandleErrorEPv@4
_ZNK6webrtc15GainControlImpl15ConfigureHandleEPv@4
_ZNK6webrtc15GainControlImpl16InitializeHandleEPv@4
_ZNK6webrtc15GainControlImpl17target_level_dbfsEv
_ZNK6webrtc15GainControlImpl18is_limiter_enabledEv
_ZNK6webrtc15GainControlImpl19compression_gain_dbEv
_ZNK6webrtc15GainControlImpl19stream_is_saturatedEv
_ZNK6webrtc15GainControlImpl20analog_level_maximumEv
_ZNK6webrtc15GainControlImpl20analog_level_minimumEv
_ZNK6webrtc15GainControlImpl20num_handles_requiredEv ; Check!!! Couldn't determine function argument count. Function doesn't return. 
_ZNK6webrtc15GainControlImpl4modeEv
_ZNK6webrtc15IFChannelBuffer10fbuf_constEv
_ZNK6webrtc15IFChannelBuffer10ibuf_constEv
_ZNK6webrtc15IFChannelBuffer8RefreshFEv
_ZNK6webrtc15IFChannelBuffer8RefreshIEv
_ZNK6webrtc16RealFourierOoura5orderEv
_ZNK6webrtc16RealFourierOoura7ForwardEPKfPSt7complexIfE@8
_ZNK6webrtc16RealFourierOoura7InverseEPKSt7complexIfEPf@8
_ZNK6webrtc17VadCircularBuffer20ConvertToLinearIndexEPi@4
_ZNK6webrtc17VadCircularBuffer3GetEiPd@8
_ZNK6webrtc17VadCircularBuffer6OldestEv
_ZNK6webrtc18HighPassFilterImpl10is_enabledEv
_ZNK6webrtc18HighPassFilterImpl12CreateHandleEv
_ZNK6webrtc18HighPassFilterImpl13DestroyHandleEPv@4
_ZNK6webrtc18HighPassFilterImpl14GetHandleErrorEPv@4
_ZNK6webrtc18HighPassFilterImpl15ConfigureHandleEPv@4
_ZNK6webrtc18HighPassFilterImpl16InitializeHandleEPv@4
_ZNK6webrtc18HighPassFilterImpl20num_handles_requiredEv ; Check!!! Couldn't determine function argument count. Function doesn't return. 
_ZNK6webrtc18LevelEstimatorImpl10is_enabledEv
_ZNK6webrtc18LevelEstimatorImpl12CreateHandleEv
_ZNK6webrtc18LevelEstimatorImpl13DestroyHandleEPv@4
_ZNK6webrtc18LevelEstimatorImpl14GetHandleErrorEPv@4
_ZNK6webrtc18LevelEstimatorImpl15ConfigureHandleEPv@4
_ZNK6webrtc18LevelEstimatorImpl16InitializeHandleEPv@4
_ZNK6webrtc18LevelEstimatorImpl20num_handles_requiredEv
_ZNK6webrtc18VoiceDetectionImpl10is_enabledEv
_ZNK6webrtc18VoiceDetectionImpl10likelihoodEv
_ZNK6webrtc18VoiceDetectionImpl12CreateHandleEv
_ZNK6webrtc18VoiceDetectionImpl13DestroyHandleEPv@4
_ZNK6webrtc18VoiceDetectionImpl13frame_size_msEv
_ZNK6webrtc18VoiceDetectionImpl14GetHandleErrorEPv@4
_ZNK6webrtc18VoiceDetectionImpl15ConfigureHandleEPv@4
_ZNK6webrtc18VoiceDetectionImpl16InitializeHandleEPv@4
_ZNK6webrtc18VoiceDetectionImpl16stream_has_voiceEv
_ZNK6webrtc18VoiceDetectionImpl20num_handles_requiredEv
_ZNK6webrtc19AudioProcessingImpl12gain_controlEv
_ZNK6webrtc19AudioProcessingImpl15analysis_neededEb@4
_ZNK6webrtc19AudioProcessingImpl15delay_offset_msEv
_ZNK6webrtc19AudioProcessingImpl15level_estimatorEv
_ZNK6webrtc19AudioProcessingImpl15stream_delay_msEv
_ZNK6webrtc19AudioProcessingImpl15voice_detectionEv
_ZNK6webrtc19AudioProcessingImpl16high_pass_filterEv
_ZNK6webrtc19AudioProcessingImpl16is_rev_processedEv
_ZNK6webrtc19AudioProcessingImpl16synthesis_neededEb@4
_ZNK6webrtc19AudioProcessingImpl17echo_cancellationEv
_ZNK6webrtc19AudioProcessingImpl17is_data_processedEv
_ZNK6webrtc19AudioProcessingImpl17noise_suppressionEv
_ZNK6webrtc19AudioProcessingImpl18num_input_channelsEv
_ZNK6webrtc19AudioProcessingImpl18output_copy_neededEb@4
_ZNK6webrtc19AudioProcessingImpl19echo_control_mobileEv
_ZNK6webrtc19AudioProcessingImpl19num_output_channelsEv
_ZNK6webrtc19AudioProcessingImpl19proc_sample_rate_hzEv
_ZNK6webrtc19AudioProcessingImpl20num_reverse_channelsEv
_ZNK6webrtc19AudioProcessingImpl20was_stream_delay_setEv
_ZNK6webrtc19AudioProcessingImpl21rev_conversion_neededEv
_ZNK6webrtc19AudioProcessingImpl25proc_split_sample_rate_hzEv
_ZNK6webrtc19ProcessingComponent11num_handlesEv
_ZNK6webrtc19ProcessingComponent20is_component_enabledEv
_ZNK6webrtc19ProcessingComponent6handleEi@4
_ZNK6webrtc20EchoCancellationImpl10is_enabledEv
_ZNK6webrtc20EchoCancellationImpl12CreateHandleEv
_ZNK6webrtc20EchoCancellationImpl13DestroyHandleEPv@4
_ZNK6webrtc20EchoCancellationImpl14GetHandleErrorEPv@4
_ZNK6webrtc20EchoCancellationImpl15ConfigureHandleEPv@4
_ZNK6webrtc20EchoCancellationImpl15stream_has_echoEv
_ZNK6webrtc20EchoCancellationImpl16InitializeHandleEPv@4
_ZNK6webrtc20EchoCancellationImpl17suppression_levelEv
_ZNK6webrtc20EchoCancellationImpl19are_metrics_enabledEv
_ZNK6webrtc20EchoCancellationImpl20num_handles_requiredEv
_ZNK6webrtc20EchoCancellationImpl20stream_drift_samplesEv
_ZNK6webrtc20EchoCancellationImpl24is_delay_logging_enabledEv
_ZNK6webrtc20EchoCancellationImpl25is_delay_agnostic_enabledEv
_ZNK6webrtc20EchoCancellationImpl26is_extended_filter_enabledEv
_ZNK6webrtc20EchoCancellationImpl29is_drift_compensation_enabledEv
_ZNK6webrtc20EchoCancellationImpl8aec_coreEv
_ZNK6webrtc20GainControlForNewAgc10is_enabledEv ; Check!!! Couldn't determine function argument count. Function doesn't return. 
_ZNK6webrtc20GainControlForNewAgc17target_level_dbfsEv ; Check!!! Couldn't determine function argument count. Function doesn't return. 
_ZNK6webrtc20GainControlForNewAgc18is_limiter_enabledEv ; Check!!! Couldn't determine function argument count. Function doesn't return. 
_ZNK6webrtc20GainControlForNewAgc19compression_gain_dbEv ; Check!!! Couldn't determine function argument count. Function doesn't return. 
_ZNK6webrtc20GainControlForNewAgc19stream_is_saturatedEv ; Check!!! Couldn't determine function argument count. Function doesn't return. 
_ZNK6webrtc20GainControlForNewAgc20analog_level_maximumEv ; Check!!! Couldn't determine function argument count. Function doesn't return. 
_ZNK6webrtc20GainControlForNewAgc20analog_level_minimumEv ; Check!!! Couldn't determine function argument count. Function doesn't return. 
_ZNK6webrtc20GainControlForNewAgc4modeEv
_ZNK6webrtc20NoiseSuppressionImpl10is_enabledEv
_ZNK6webrtc20NoiseSuppressionImpl12CreateHandleEv
_ZNK6webrtc20NoiseSuppressionImpl13DestroyHandleEPv@4
_ZNK6webrtc20NoiseSuppressionImpl14GetHandleErrorEPv@4
_ZNK6webrtc20NoiseSuppressionImpl15ConfigureHandleEPv@4
_ZNK6webrtc20NoiseSuppressionImpl16InitializeHandleEPv@4
_ZNK6webrtc20NoiseSuppressionImpl18speech_probabilityEv
_ZNK6webrtc20NoiseSuppressionImpl20num_handles_requiredEv ; Check!!! Couldn't determine function argument count. Function doesn't return. 
_ZNK6webrtc20NoiseSuppressionImpl5levelEv
_ZNK6webrtc21EchoControlMobileImpl10is_enabledEv
_ZNK6webrtc21EchoControlMobileImpl11GetEchoPathEPvj@8
_ZNK6webrtc21EchoControlMobileImpl12CreateHandleEv
_ZNK6webrtc21EchoControlMobileImpl12routing_modeEv
_ZNK6webrtc21EchoControlMobileImpl13DestroyHandleEPv@4
_ZNK6webrtc21EchoControlMobileImpl14GetHandleErrorEPv@4
_ZNK6webrtc21EchoControlMobileImpl15ConfigureHandleEPv@4
_ZNK6webrtc21EchoControlMobileImpl16InitializeHandleEPv@4
_ZNK6webrtc21EchoControlMobileImpl20num_handles_requiredEv
_ZNK6webrtc21EchoControlMobileImpl24is_comfort_noise_enabledEv
_ZNK6webrtc23IntelligibilityEnhancer6activeEv
_ZNK6webrtc3Agc17target_level_dbfsEv
_ZNK6webrtc3Agc17voice_probabilityEv
_ZNK6webrtc6Config3GetINS_11BeamformingEEERKT_v
_ZNK6webrtc6Config3GetINS_14ExperimentalNsEEERKT_v
_ZNK6webrtc6Config3GetINS_15ExperimentalAgcEEERKT_v
_ZNK6webrtc9Histogram10CurrentRmsEv
_ZNK6webrtc9Histogram12AudioContentEv
_ZNK6webrtc9TraceImpl10AddMessageEPcPKct@12
_ZNK6webrtc9TraceImpl10TraceCheckENS_10TraceLevelE@4
_ZNK6webrtc9TraceImpl11AddThreadIdEPc@4
_ZNK6webrtc9TraceImpl14AddModuleAndIdEPcNS_11TraceModuleEi@12
_ZNK6webrtc9TraceImpl14CreateFileNameEPKcPcj@12
_ZNK6webrtc9TraceImpl14UpdateFileNameEPKcPcj@12
_ZNK6webrtc9TraceImpl8AddLevelEPcNS_10TraceLevelE@8
_ZNKSt8_Rb_treeIPvSt4pairIKS0_PN6webrtc6Config10BaseOptionEESt10_Select1stIS7_ESt4lessIS0_ESaIS7_EE4findERS2_@4
_ZNSt10_List_baseIPN6webrtc19ProcessingComponentESaIS2_EE8_M_clearEv
_ZNSt11_Deque_baseIfSaIfEE17_M_initialize_mapEj@4
_ZNSt11_Deque_baseIfSaIfEED2Ev
_ZNSt15basic_stringbufIcSt11char_traitsIcESaIcEED1Ev
_ZNSt5dequeIfSaIfEE16_M_push_back_auxIIfEEEvDpOT_@4
_ZNSt5dequeIfSaIfEE17_M_reallocate_mapEjb@8
_ZNSt6vectorIN6webrtc14TwoBandsStatesESaIS1_EE17_M_default_appendEj@4
_ZNSt6vectorIP10RingBufferSaIS1_EE19_M_emplace_back_auxIIS1_EEEvDpOT_@4
_ZNSt6vectorIPN6webrtc13ChannelBufferIfEESaIS3_EE19_M_emplace_back_auxIIRKS3_EEEvDpOT_@4
_ZNSt6vectorIPN6webrtc13ComplexMatrixIfEESaIS3_EE19_M_emplace_back_auxIIRKS3_EEEvDpOT_@4
_ZNSt6vectorIPN6webrtc14AudioConverterESaIS2_EE19_M_emplace_back_auxIIRKS2_EEEvDpOT_@4
_ZNSt6vectorIPN6webrtc14AudioConverterESaIS2_EED1Ev
_ZNSt6vectorIPN6webrtc15SparseFIRFilterESaIS2_EE19_M_emplace_back_auxIIRKS2_EEEvDpOT_@4
_ZNSt6vectorIPN6webrtc17PushSincResamplerESaIS2_EE19_M_emplace_back_auxIIRKS2_EEEvDpOT_@4
_ZNSt6vectorIPN6webrtc17PushSincResamplerESaIS2_EED1Ev
_ZNSt6vectorIPN6webrtc19ThreeBandFilterBankESaIS2_EE19_M_emplace_back_auxIIRKS2_EEEvDpOT_@4
_ZNSt6vectorIPSt7complexIfESaIS2_EE17_M_default_appendEj@4
_ZNSt6vectorIPSt7complexIfESaIS2_EED1Ev
_ZNSt6vectorIPvSaIS0_EE14_M_fill_insertEN9__gnu_cxx17__normal_iteratorIPS0_S2_EEjRKS0_@12
_ZNSt6vectorIS_IfSaIfEESaIS1_EE17_M_default_appendEj@4
_ZNSt6vectorISt7complexIfESaIS1_EE17_M_default_appendEj@4
_ZNSt6vectorISt7complexIfESaIS1_EED1Ev
_ZNSt6vectorIdSaIdEE17_M_default_appendEj@4
_ZNSt6vectorIfSaIfEE12emplace_backIIfEEEvDpOT_@4
_ZNSt6vectorIfSaIfEE19_M_emplace_back_auxIIRKfEEEvDpOT_@4
_ZNSt6vectorIfSaIfEE19_M_emplace_back_auxIIfEEEvDpOT_@4
_ZNSt6vectorIfSaIfEED1Ev
_ZNSt6vectorIiSaIiEE14_M_fill_assignEjRKi@8
_ZNSt8_Rb_treeIPvSt4pairIKS0_PN6webrtc6Config10BaseOptionEESt10_Select1stIS7_ESt4lessIS0_ESaIS7_EE8_M_eraseEPSt13_Rb_tree_nodeIS7_E@4
_ZSt13__adjust_heapIPfifEvT_T0_S2_T1_
_ZSt13__introselectIPfiEvT_S1_S1_T0_
_ZTIN6webrtc10BeamformerIfEE DATA
_ZTIN6webrtc10FIRFilterCE DATA
_ZTIN6webrtc11AudioBufferE DATA
_ZTIN6webrtc11FileWrapperE DATA
_ZTIN6webrtc11GainControlE DATA
_ZTIN6webrtc11RealFourierE DATA
_ZTIN6webrtc12TraceWindowsE DATA
_ZTIN6webrtc13ComplexMatrixIfEE DATA
_ZTIN6webrtc13CopyConverterE DATA
_ZTIN6webrtc13FIRFilterSSE2E DATA
_ZTIN6webrtc13RWLockGenericE DATA
_ZTIN6webrtc13RWLockWrapperE DATA
_ZTIN6webrtc13SincResamplerE DATA
_ZTIN6webrtc13ThreadWindowsE DATA
_ZTIN6webrtc13ThreadWrapperE DATA
_ZTIN6webrtc14AudioConverterE DATA
_ZTIN6webrtc14HighPassFilterE DATA
_ZTIN6webrtc14LevelEstimatorE DATA
_ZTIN6webrtc14UpmixConverterE DATA
_ZTIN6webrtc14VoiceDetectionE DATA
_ZTIN6webrtc15AudioProcessingE DATA
_ZTIN6webrtc15BlockerCallbackE DATA
_ZTIN6webrtc15FileWrapperImplE DATA
_ZTIN6webrtc15GainControlImplE DATA
_ZTIN6webrtc15LappedTransform10BlockThunkE DATA
_ZTIN6webrtc15LappedTransform8CallbackE DATA
_ZTIN6webrtc15TypingDetectionE DATA
_ZTIN6webrtc15VolumeCallbacksE DATA
_ZTIN6webrtc16DownmixConverterE DATA
_ZTIN6webrtc16EchoCancellationE DATA
_ZTIN6webrtc16NoiseSuppressionE DATA
_ZTIN6webrtc16RealFourierOouraE DATA
_ZTIN6webrtc17EchoControlMobileE DATA
_ZTIN6webrtc17PushSincResamplerE DATA
_ZTIN6webrtc17ResampleConverterE DATA
_ZTIN6webrtc18HighPassFilterImplE DATA
_ZTIN6webrtc18LevelEstimatorImplE DATA
_ZTIN6webrtc18VoiceDetectionImplE DATA
_ZTIN6webrtc19AudioProcessingImplE DATA
_ZTIN6webrtc19NonlinearBeamformerE DATA
_ZTIN6webrtc19ProcessingComponentE DATA
_ZTIN6webrtc20CompositionConverterE DATA
_ZTIN6webrtc20EchoCancellationImplE DATA
_ZTIN6webrtc20GainControlForNewAgcE DATA
_ZTIN6webrtc20NoiseSuppressionImplE DATA
_ZTIN6webrtc21EchoControlMobileImplE DATA
_ZTIN6webrtc21SincResamplerCallbackE DATA
_ZTIN6webrtc22CriticalSectionWindowsE DATA
_ZTIN6webrtc22CriticalSectionWrapperE DATA
_ZTIN6webrtc23IntelligibilityEnhancer17TransformCallbackE DATA
_ZTIN6webrtc24ConditionVariableWrapperE DATA
_ZTIN6webrtc25ConditionVariableEventWinE DATA
_ZTIN6webrtc26ConditionVariableNativeWinE DATA
_ZTIN6webrtc3AgcE DATA
_ZTIN6webrtc5TraceE DATA
_ZTIN6webrtc6MatrixISt7complexIfEEE DATA
_ZTIN6webrtc8InStreamE DATA
_ZTIN6webrtc9FIRFilterE DATA
_ZTIN6webrtc9OutStreamE DATA
_ZTIN6webrtc9RWLockWinE DATA
_ZTIN6webrtc9TraceImplE DATA
_ZTSN6webrtc10BeamformerIfEE DATA
_ZTSN6webrtc10FIRFilterCE DATA
_ZTSN6webrtc11AudioBufferE DATA
_ZTSN6webrtc11FileWrapperE DATA
_ZTSN6webrtc11GainControlE DATA
_ZTSN6webrtc11RealFourierE DATA
_ZTSN6webrtc12TraceWindowsE DATA
_ZTSN6webrtc13ComplexMatrixIfEE DATA
_ZTSN6webrtc13CopyConverterE DATA
_ZTSN6webrtc13FIRFilterSSE2E DATA
_ZTSN6webrtc13RWLockGenericE DATA
_ZTSN6webrtc13RWLockWrapperE DATA
_ZTSN6webrtc13SincResamplerE DATA
_ZTSN6webrtc13ThreadWindowsE DATA
_ZTSN6webrtc13ThreadWrapperE DATA
_ZTSN6webrtc14AudioConverterE DATA
_ZTSN6webrtc14HighPassFilterE DATA
_ZTSN6webrtc14LevelEstimatorE DATA
_ZTSN6webrtc14UpmixConverterE DATA
_ZTSN6webrtc14VoiceDetectionE DATA
_ZTSN6webrtc15AudioProcessingE DATA
_ZTSN6webrtc15BlockerCallbackE DATA
_ZTSN6webrtc15FileWrapperImplE DATA
_ZTSN6webrtc15GainControlImplE DATA
_ZTSN6webrtc15LappedTransform10BlockThunkE DATA
_ZTSN6webrtc15LappedTransform8CallbackE DATA
_ZTSN6webrtc15TypingDetectionE DATA
_ZTSN6webrtc15VolumeCallbacksE DATA
_ZTSN6webrtc16DownmixConverterE DATA
_ZTSN6webrtc16EchoCancellationE DATA
_ZTSN6webrtc16NoiseSuppressionE DATA
_ZTSN6webrtc16RealFourierOouraE DATA
_ZTSN6webrtc17EchoControlMobileE DATA
_ZTSN6webrtc17PushSincResamplerE DATA
_ZTSN6webrtc17ResampleConverterE DATA
_ZTSN6webrtc18HighPassFilterImplE DATA
_ZTSN6webrtc18LevelEstimatorImplE DATA
_ZTSN6webrtc18VoiceDetectionImplE DATA
_ZTSN6webrtc19AudioProcessingImplE DATA
_ZTSN6webrtc19NonlinearBeamformerE DATA
_ZTSN6webrtc19ProcessingComponentE DATA
_ZTSN6webrtc20CompositionConverterE DATA
_ZTSN6webrtc20EchoCancellationImplE DATA
_ZTSN6webrtc20GainControlForNewAgcE DATA
_ZTSN6webrtc20NoiseSuppressionImplE DATA
_ZTSN6webrtc21EchoControlMobileImplE DATA
_ZTSN6webrtc21SincResamplerCallbackE DATA
_ZTSN6webrtc22CriticalSectionWindowsE DATA
_ZTSN6webrtc22CriticalSectionWrapperE DATA
_ZTSN6webrtc23IntelligibilityEnhancer17TransformCallbackE DATA
_ZTSN6webrtc24ConditionVariableWrapperE DATA
_ZTSN6webrtc25ConditionVariableEventWinE DATA
_ZTSN6webrtc26ConditionVariableNativeWinE DATA
_ZTSN6webrtc3AgcE DATA
_ZTSN6webrtc5TraceE DATA
_ZTSN6webrtc6MatrixISt7complexIfEEE DATA
_ZTSN6webrtc8InStreamE DATA
_ZTSN6webrtc9FIRFilterE DATA
_ZTSN6webrtc9OutStreamE DATA
_ZTSN6webrtc9RWLockWinE DATA
_ZTSN6webrtc9TraceImplE DATA
_ZTVN6webrtc10BeamformerIfEE DATA
_ZTVN6webrtc10FIRFilterCE DATA
_ZTVN6webrtc11AudioBufferE DATA
_ZTVN6webrtc11FileWrapperE DATA
_ZTVN6webrtc11GainControlE DATA
_ZTVN6webrtc11RealFourierE DATA
_ZTVN6webrtc12TraceWindowsE DATA
_ZTVN6webrtc13ComplexMatrixIfEE DATA
_ZTVN6webrtc13CopyConverterE DATA
_ZTVN6webrtc13FIRFilterSSE2E DATA
_ZTVN6webrtc13RWLockGenericE DATA
_ZTVN6webrtc13RWLockWrapperE DATA
_ZTVN6webrtc13SincResamplerE DATA
_ZTVN6webrtc13ThreadWindowsE DATA
_ZTVN6webrtc13ThreadWrapperE DATA
_ZTVN6webrtc14AudioConverterE DATA
_ZTVN6webrtc14HighPassFilterE DATA
_ZTVN6webrtc14LevelEstimatorE DATA
_ZTVN6webrtc14UpmixConverterE DATA
_ZTVN6webrtc14VoiceDetectionE DATA
_ZTVN6webrtc15AudioProcessingE DATA
_ZTVN6webrtc15BlockerCallbackE DATA
_ZTVN6webrtc15FileWrapperImplE DATA
_ZTVN6webrtc15GainControlImplE DATA
_ZTVN6webrtc15LappedTransform10BlockThunkE DATA
_ZTVN6webrtc15LappedTransform8CallbackE DATA
_ZTVN6webrtc15TypingDetectionE DATA
_ZTVN6webrtc15VolumeCallbacksE DATA
_ZTVN6webrtc16DownmixConverterE DATA
_ZTVN6webrtc16EchoCancellationE DATA
_ZTVN6webrtc16NoiseSuppressionE DATA
_ZTVN6webrtc16RealFourierOouraE DATA
_ZTVN6webrtc17EchoControlMobileE DATA
_ZTVN6webrtc17PushSincResamplerE DATA
_ZTVN6webrtc17ResampleConverterE DATA
_ZTVN6webrtc18HighPassFilterImplE DATA
_ZTVN6webrtc18LevelEstimatorImplE DATA
_ZTVN6webrtc18VoiceDetectionImplE DATA
_ZTVN6webrtc19AudioProcessingImplE DATA
_ZTVN6webrtc19NonlinearBeamformerE DATA
_ZTVN6webrtc19ProcessingComponentE DATA
_ZTVN6webrtc20CompositionConverterE DATA
_ZTVN6webrtc20EchoCancellationImplE DATA
_ZTVN6webrtc20GainControlForNewAgcE DATA
_ZTVN6webrtc20NoiseSuppressionImplE DATA
_ZTVN6webrtc21EchoControlMobileImplE DATA
_ZTVN6webrtc21SincResamplerCallbackE DATA
_ZTVN6webrtc22CriticalSectionWindowsE DATA
_ZTVN6webrtc22CriticalSectionWrapperE DATA
_ZTVN6webrtc23IntelligibilityEnhancer17TransformCallbackE DATA
_ZTVN6webrtc24ConditionVariableWrapperE DATA
_ZTVN6webrtc25ConditionVariableEventWinE DATA
_ZTVN6webrtc26ConditionVariableNativeWinE DATA
_ZTVN6webrtc3AgcE DATA
_ZTVN6webrtc6MatrixISt7complexIfEEE DATA
_ZTVN6webrtc8InStreamE DATA
_ZTVN6webrtc9FIRFilterE DATA
_ZTVN6webrtc9OutStreamE DATA
_ZTVN6webrtc9RWLockWinE DATA
_ZTVN6webrtc9TraceImplE DATA
_ZThn4_N6webrtc11FileWrapper6RewindEv
_ZThn4_N6webrtc11FileWrapperD0Ev
_ZThn4_N6webrtc11FileWrapperD1Ev
_ZThn4_N6webrtc15FileWrapperImpl5WriteEPKvj@8
_ZThn4_N6webrtc15FileWrapperImpl6RewindEv
_ZThn4_N6webrtc15FileWrapperImplD0Ev
_ZThn4_N6webrtc15FileWrapperImplD1Ev
_ZThn4_N6webrtc15GainControlImpl10InitializeEv
_ZThn4_N6webrtc15GainControlImplD0Ev
_ZThn4_N6webrtc15GainControlImplD1Ev
_ZThn4_N6webrtc18HighPassFilterImplD0Ev
_ZThn4_N6webrtc18HighPassFilterImplD1Ev
_ZThn4_N6webrtc18LevelEstimatorImplD0Ev
_ZThn4_N6webrtc18LevelEstimatorImplD1Ev
_ZThn4_N6webrtc18VoiceDetectionImpl10InitializeEv
_ZThn4_N6webrtc18VoiceDetectionImplD0Ev
_ZThn4_N6webrtc18VoiceDetectionImplD1Ev
_ZThn4_N6webrtc19NonlinearBeamformer17ProcessAudioBlockEPKPKSt7complexIfEijiPKPS2_@20
_ZThn4_N6webrtc19NonlinearBeamformerD0Ev
_ZThn4_N6webrtc19NonlinearBeamformerD1Ev
_ZThn4_N6webrtc20EchoCancellationImpl10InitializeEv
_ZThn4_N6webrtc20EchoCancellationImpl15SetExtraOptionsERKNS_6ConfigE@4
_ZThn4_N6webrtc20EchoCancellationImplD0Ev
_ZThn4_N6webrtc20EchoCancellationImplD1Ev
_ZThn4_N6webrtc20GainControlForNewAgc12GetMicVolumeEv
_ZThn4_N6webrtc20GainControlForNewAgc12SetMicVolumeEi@4
_ZThn4_N6webrtc20GainControlForNewAgcD0Ev
_ZThn4_N6webrtc20GainControlForNewAgcD1Ev
_ZThn4_N6webrtc20NoiseSuppressionImplD0Ev
_ZThn4_N6webrtc20NoiseSuppressionImplD1Ev
_ZThn4_N6webrtc21EchoControlMobileImpl10InitializeEv
_ZThn4_N6webrtc21EchoControlMobileImplD0Ev
_ZThn4_N6webrtc21EchoControlMobileImplD1Ev
_ZThn4_NK6webrtc15GainControlImpl12CreateHandleEv
_ZThn4_NK6webrtc15GainControlImpl13DestroyHandleEPv@4
_ZThn4_NK6webrtc15GainControlImpl14GetHandleErrorEPv@4
_ZThn4_NK6webrtc15GainControlImpl15ConfigureHandleEPv@4
_ZThn4_NK6webrtc15GainControlImpl16InitializeHandleEPv@4
_ZThn4_NK6webrtc15GainControlImpl20num_handles_requiredEv ; Check!!! Couldn't determine function argument count. Function doesn't return. 
_ZThn4_NK6webrtc18HighPassFilterImpl12CreateHandleEv
_ZThn4_NK6webrtc18HighPassFilterImpl13DestroyHandleEPv@4
_ZThn4_NK6webrtc18HighPassFilterImpl14GetHandleErrorEPv@4
_ZThn4_NK6webrtc18HighPassFilterImpl15ConfigureHandleEPv@4
_ZThn4_NK6webrtc18HighPassFilterImpl16InitializeHandleEPv@4
_ZThn4_NK6webrtc18HighPassFilterImpl20num_handles_requiredEv ; Check!!! Couldn't determine function argument count. Function doesn't return. 
_ZThn4_NK6webrtc18LevelEstimatorImpl12CreateHandleEv
_ZThn4_NK6webrtc18LevelEstimatorImpl13DestroyHandleEPv@4
_ZThn4_NK6webrtc18LevelEstimatorImpl14GetHandleErrorEPv@4
_ZThn4_NK6webrtc18LevelEstimatorImpl15ConfigureHandleEPv@4
_ZThn4_NK6webrtc18LevelEstimatorImpl16InitializeHandleEPv@4
_ZThn4_NK6webrtc18LevelEstimatorImpl20num_handles_requiredEv
_ZThn4_NK6webrtc18VoiceDetectionImpl12CreateHandleEv
_ZThn4_NK6webrtc18VoiceDetectionImpl13DestroyHandleEPv@4
_ZThn4_NK6webrtc18VoiceDetectionImpl14GetHandleErrorEPv@4
_ZThn4_NK6webrtc18VoiceDetectionImpl15ConfigureHandleEPv@4
_ZThn4_NK6webrtc18VoiceDetectionImpl16InitializeHandleEPv@4
_ZThn4_NK6webrtc18VoiceDetectionImpl20num_handles_requiredEv
_ZThn4_NK6webrtc20EchoCancellationImpl12CreateHandleEv
_ZThn4_NK6webrtc20EchoCancellationImpl13DestroyHandleEPv@4
_ZThn4_NK6webrtc20EchoCancellationImpl14GetHandleErrorEPv@4
_ZThn4_NK6webrtc20EchoCancellationImpl15ConfigureHandleEPv@4
_ZThn4_NK6webrtc20EchoCancellationImpl16InitializeHandleEPv@4
_ZThn4_NK6webrtc20EchoCancellationImpl20num_handles_requiredEv
_ZThn4_NK6webrtc20NoiseSuppressionImpl12CreateHandleEv
_ZThn4_NK6webrtc20NoiseSuppressionImpl13DestroyHandleEPv@4
_ZThn4_NK6webrtc20NoiseSuppressionImpl14GetHandleErrorEPv@4
_ZThn4_NK6webrtc20NoiseSuppressionImpl15ConfigureHandleEPv@4
_ZThn4_NK6webrtc20NoiseSuppressionImpl16InitializeHandleEPv@4
_ZThn4_NK6webrtc20NoiseSuppressionImpl20num_handles_requiredEv ; Check!!! Couldn't determine function argument count. Function doesn't return. 
_ZThn4_NK6webrtc21EchoControlMobileImpl12CreateHandleEv
_ZThn4_NK6webrtc21EchoControlMobileImpl13DestroyHandleEPv@4
_ZThn4_NK6webrtc21EchoControlMobileImpl14GetHandleErrorEPv@4
_ZThn4_NK6webrtc21EchoControlMobileImpl15ConfigureHandleEPv@4
_ZThn4_NK6webrtc21EchoControlMobileImpl16InitializeHandleEPv@4
_ZThn4_NK6webrtc21EchoControlMobileImpl20num_handles_requiredEv
_ZZN6webrtc6Config10identifierINS_11BeamformingEEEPvvE14id_placeholder DATA
_ZZN6webrtc6Config10identifierINS_13DelayAgnosticEEEPvvE14id_placeholder DATA
_ZZN6webrtc6Config10identifierINS_14ExperimentalNsEEEPvvE14id_placeholder DATA
_ZZN6webrtc6Config10identifierINS_14ExtendedFilterEEEPvvE14id_placeholder DATA
_ZZN6webrtc6Config10identifierINS_15ExperimentalAgcEEEPvvE14id_placeholder DATA
_ZZN6webrtc6Config10identifierINS_15IntelligibilityEEEPvvE14id_placeholder DATA
_ZZN6webrtc6Config13default_valueINS_11BeamformingEEERKT_vE3def DATA
_ZZN6webrtc6Config13default_valueINS_13DelayAgnosticEEERKT_vE3def DATA
_ZZN6webrtc6Config13default_valueINS_14ExperimentalNsEEERKT_vE3def DATA
_ZZN6webrtc6Config13default_valueINS_14ExtendedFilterEEERKT_vE3def DATA
_ZZN6webrtc6Config13default_valueINS_15ExperimentalAgcEEERKT_vE3def DATA
_ZZN6webrtc6Config13default_valueINS_15IntelligibilityEEERKT_vE3def DATA
aec_rdft_forward_128
aec_rdft_init
aec_rdft_init_sse2
aec_rdft_inverse_128 ; Check!!! Couldn't determine function argument count. Function doesn't return. 
bitrv2_128 DATA
cft1st_128 DATA
cftbsub_128 DATA
cftfsub_128 DATA
cftmdl_128 DATA
cftmdl_wk1r DATA
main
rdft_w DATA
rdft_wk1i DATA
rdft_wk1r DATA
rdft_wk2i DATA
rdft_wk2r DATA
rdft_wk3i DATA
rdft_wk3r DATA
rdft_wk3ri_first DATA
rdft_wk3ri_second DATA
rftbsub_128 DATA
rftfsub_128 DATA
